(lp1
(lp2
I251
aI1
aI0
aS'train'
p3
aa(lp4
I251
aI3
aI0
ag3
aa(lp5
I251
aI4
aI0
ag3
aa(lp6
I251
aI6
aI0
ag3
aa(lp7
I251
aI27
aI0
ag3
aa(lp8
I252
aI2
aI0
ag3
aa(lp9
I252
aI8
aI0
ag3
aa(lp10
I252
aI15
aI0
ag3
aa(lp11
I252
aI19
aI0
ag3
aa(lp12
I252
aI22
aI0
ag3
aa(lp13
I252
aI37
aI0
ag3
aa(lp14
I252
aI42
aI0
ag3
aa(lp15
I252
aI1
aI1
ag3
aa(lp16
I252
aI3
aI1
ag3
aa(lp17
I252
aI4
aI1
ag3
aa(lp18
I252
aI6
aI1
ag3
aa(lp19
I253
aI7
aI0
ag3
aa(lp20
I253
aI10
aI0
ag3
aa(lp21
I253
aI14
aI0
ag3
aa(lp22
I253
aI28
aI0
ag3
aa(lp23
I253
aI31
aI0
ag3
aa(lp24
I253
aI43
aI0
ag3
aa(lp25
I253
aI50
aI0
ag3
aa(lp26
I253
aI51
aI0
ag3
aa(lp27
I253
aI2
aI1
ag3
aa(lp28
I253
aI15
aI1
ag3
aa(lp29
I253
aI19
aI1
ag3
aa(lp30
I253
aI22
aI1
ag3
aa(lp31
I253
aI27
aI1
ag3
aa(lp32
I253
aI37
aI1
ag3
aa(lp33
I253
aI42
aI1
ag3
aa(lp34
I253
aI1
aI2
ag3
aa(lp35
I253
aI3
aI2
ag3
aa(lp36
I253
aI4
aI2
ag3
aa(lp37
I254
aI18
aI0
ag3
aa(lp38
I254
aI41
aI0
ag3
aa(lp39
I254
aI7
aI1
ag3
aa(lp40
I254
aI28
aI1
ag3
aa(lp41
I254
aI2
aI2
ag3
aa(lp42
I254
aI6
aI2
ag3
aa(lp43
I254
aI15
aI2
ag3
aa(lp44
I254
aI22
aI2
ag3
aa(lp45
I255
aI18
aI1
ag3
aa(lp46
I255
aI27
aI2
ag3
aa(lp47
I255
aI1
aI3
ag3
aa(lp48
I255
aI3
aI3
ag3
aa(lp49
I255
aI4
aI3
ag3
aa(lp50
I255
aI6
aI3
ag3
aa(lp51
I256
aI11
aI0
ag3
aa(lp52
I256
aI10
aI1
ag3
aa(lp53
I256
aI28
aI2
ag3
aa(lp54
I256
aI22
aI3
ag3
aa(lp55
I256
aI6
aI4
ag3
aa(lp56
I257
aI12
aI0
ag3
aa(lp57
I257
aI2
aI3
ag3
aa(lp58
I257
aI28
aI3
ag3
aa(lp59
I257
aI1
aI4
ag3
aa(lp60
I257
aI3
aI4
ag3
aa(lp61
I257
aI4
aI4
ag3
aa(lp62
I262
aI57
aI0
ag3
aa(lp63
I262
aI37
aI2
ag3
aa(lp64
I262
aI22
aI4
ag3
aa(lp65
I262
aI1
aI5
ag3
aa(lp66
I264
aI25
aI0
ag3
aa(lp67
I264
aI11
aI1
ag3
aa(lp68
I266
aI5
aI0
ag3
aa(lp69
I266
aI8
aI1
ag3
aa(lp70
I266
aI12
aI1
ag3
aa(lp71
I266
aI10
aI2
ag3
aa(lp72
I266
aI2
aI4
ag3
aa(lp73
I266
aI4
aI5
ag3
aa(lp74
I267
aI9
aI0
ag3
aa(lp75
I267
aI49
aI0
ag3
aa(lp76
I267
aI5
aI1
ag3
aa(lp77
I267
aI8
aI2
ag3
aa(lp78
I267
aI11
aI2
ag3
aa(lp79
I267
aI19
aI2
ag3
aa(lp80
I267
aI10
aI3
ag3
aa(lp81
I267
aI1
aI6
ag3
aa(lp82
I268
aI29
aI0
ag3
aa(lp83
I268
aI36
aI0
ag3
aa(lp84
I268
aI40
aI0
ag3
aa(lp85
I268
aI9
aI1
ag3
aa(lp86
I268
aI25
aI1
ag3
aa(lp87
I268
aI41
aI1
ag3
aa(lp88
I268
aI49
aI1
ag3
aa(lp89
I268
aI50
aI1
ag3
aa(lp90
I268
aI7
aI2
ag3
aa(lp91
I268
aI42
aI2
ag3
aa(lp92
I268
aI8
aI3
ag3
aa(lp93
I268
aI28
aI4
ag3
aa(lp94
I268
aI2
aI5
ag3
aa(lp95
I268
aI4
aI6
ag3
aa(lp96
I269
aI16
aI0
ag3
aa(lp97
I269
aI33
aI0
ag3
aa(lp98
I269
aI53
aI0
ag3
aa(lp99
I269
aI29
aI1
ag3
aa(lp100
I269
aI36
aI1
ag3
aa(lp101
I269
aI12
aI2
ag3
aa(lp102
I269
aI25
aI2
ag3
aa(lp103
I269
aI49
aI2
ag3
aa(lp104
I269
aI7
aI3
ag3
aa(lp105
I269
aI8
aI4
ag3
aa(lp106
I269
aI10
aI4
ag3
aa(lp107
I269
aI2
aI6
ag3
aa(lp108
I269
aI4
aI7
ag3
aa(lp109
I270
aI57
aI1
ag3
aa(lp110
I270
aI11
aI3
ag3
aa(lp111
I270
aI12
aI3
ag3
aa(lp112
I270
aI49
aI3
ag3
aa(lp113
I270
aI8
aI5
ag3
aa(lp114
I270
aI10
aI5
ag3
aa(lp115
I271
aI20
aI0
ag3
aa(lp116
I271
aI9
aI2
ag3
aa(lp117
I271
aI36
aI2
ag3
aa(lp118
I271
aI3
aI5
ag3
aa(lp119
I271
aI6
aI5
ag3
aa(lp120
I271
aI1
aI7
ag3
aa(lp121
I271
aI4
aI8
ag3
aa(lp122
I273
aI12
aI4
ag3
aa(lp123
I273
aI22
aI5
ag3
aa(lp124
I273
aI3
aI6
ag3
aa(lp125
I274
aI51
aI1
ag3
aa(lp126
I274
aI50
aI2
ag3
aa(lp127
I274
aI28
aI5
ag3
aa(lp128
I274
aI8
aI6
ag3
aa(lp129
I274
aI22
aI6
ag3
aa(lp130
I274
aI1
aI8
ag3
aa(lp131
I275
aI20
aI1
ag3
aa(lp132
I275
aI3
aI7
ag3
aa(lp133
I276
aI13
aI0
ag3
aa(lp134
I276
aI16
aI1
ag3
aa(lp135
I276
aI11
aI4
ag3
aa(lp136
I276
aI28
aI6
ag3
aa(lp137
I276
aI8
aI7
ag3
aa(lp138
I276
aI22
aI7
ag3
aa(lp139
I276
aI3
aI8
ag3
aa(lp140
I276
aI4
aI9
ag3
aa(lp141
I277
aI13
aI1
ag3
aa(lp142
I277
aI33
aI1
ag3
aa(lp143
I277
aI5
aI2
ag3
aa(lp144
I277
aI20
aI2
ag3
aa(lp145
I277
aI9
aI3
ag3
aa(lp146
I277
aI36
aI3
ag3
aa(lp147
I277
aI7
aI4
ag3
aa(lp148
I277
aI11
aI5
ag3
aa(lp149
I277
aI3
aI9
ag3
aa(lp150
I278
aI6
aI6
ag3
aa(lp151
I279
aI13
aI2
ag3
aa(lp152
I279
aI20
aI3
ag3
aa(lp153
I279
aI6
aI7
ag3
aa(lp154
I280
aI14
aI1
ag3
aa(lp155
I280
aI7
aI5
ag3
aa(lp156
I280
aI28
aI7
ag3
aa(lp157
I280
aI6
aI8
ag3
aa(lp158
I280
aI22
aI8
ag3
aa(lp159
I280
aI3
aI10
ag3
aa(lp160
I280
aI4
aI10
ag3
aa(lp161
I281
aI31
aI1
ag3
aa(lp162
I281
aI5
aI3
ag3
aa(lp163
I281
aI13
aI3
ag3
aa(lp164
I281
aI15
aI3
ag3
aa(lp165
I281
aI9
aI4
ag3
aa(lp166
I281
aI20
aI4
ag3
aa(lp167
I281
aI36
aI4
ag3
aa(lp168
I281
aI7
aI6
ag3
aa(lp169
I281
aI8
aI8
ag3
aa(lp170
I281
aI28
aI8
ag3
aa(lp171
I281
aI3
aI11
ag3
aa(lp172
I282
aI6
aI9
ag3
aa(lp173
I282
aI4
aI11
ag3
aa(lp174
I283
aI13
aI4
ag3
aa(lp175
I283
aI20
aI5
ag3
aa(lp176
I283
aI3
aI12
ag3
aa(lp177
I283
aI4
aI12
ag3
aa(lp178
I284
aI35
aI0
ag3
aa(lp179
I284
aI55
aI0
ag3
aa(lp180
I284
aI14
aI2
ag3
aa(lp181
I284
aI16
aI2
ag3
aa(lp182
I284
aI31
aI2
ag3
aa(lp183
I284
aI42
aI3
ag3
aa(lp184
I284
aI9
aI5
ag3
aa(lp185
I284
aI12
aI5
ag3
aa(lp186
I284
aI13
aI5
ag3
aa(lp187
I284
aI36
aI5
ag3
aa(lp188
I284
aI10
aI6
ag3
aa(lp189
I284
aI11
aI6
ag3
aa(lp190
I284
aI7
aI7
ag3
aa(lp191
I284
aI8
aI9
ag3
aa(lp192
I284
aI22
aI9
ag3
aa(lp193
I284
aI28
aI9
ag3
aa(lp194
I284
aI6
aI10
ag3
aa(lp195
I284
aI3
aI13
ag3
aa(lp196
I285
aI39
aI0
ag3
aa(lp197
I285
aI43
aI1
ag3
aa(lp198
I285
aI14
aI3
ag3
aa(lp199
I285
aI25
aI3
ag3
aa(lp200
I285
aI13
aI6
ag3
aa(lp201
I285
aI20
aI6
ag3
aa(lp202
I285
aI36
aI6
ag3
aa(lp203
I285
aI11
aI7
ag3
aa(lp204
I285
aI1
aI9
ag3
aa(lp205
I285
aI22
aI10
ag3
aa(lp206
I285
aI4
aI13
ag3
aa(lp207
I285
aI3
aI14
ag3
aa(lp208
I286
aI1
aI10
ag3
aa(lp209
I286
aI8
aI10
ag3
aa(lp210
I286
aI22
aI11
ag3
aa(lp211
I287
aI18
aI2
ag3
aa(lp212
I287
aI41
aI2
ag3
aa(lp213
I287
aI20
aI7
ag3
aa(lp214
I287
aI36
aI7
ag3
aa(lp215
I287
aI1
aI11
ag3
aa(lp216
I287
aI4
aI14
ag3
aa(lp217
I287
aI3
aI15
ag3
aa(lp218
I288
aI16
aI3
ag3
aa(lp219
I288
aI18
aI3
ag3
aa(lp220
I288
aI14
aI4
ag3
aa(lp221
I288
aI9
aI6
ag3
aa(lp222
I288
aI13
aI7
ag3
aa(lp223
I288
aI11
aI8
ag3
aa(lp224
I288
aI22
aI12
ag3
aa(lp225
I288
aI4
aI15
ag3
aa(lp226
I288
aI3
aI16
ag3
aa(lp227
I289
aI57
aI2
ag3
aa(lp228
I289
aI15
aI4
ag3
aa(lp229
I289
aI18
aI4
ag3
aa(lp230
I289
aI25
aI4
ag3
aa(lp231
I289
aI12
aI6
ag3
aa(lp232
I289
aI13
aI8
ag3
aa(lp233
I289
aI20
aI8
ag3
aa(lp234
I289
aI28
aI10
ag3
aa(lp235
I289
aI8
aI11
ag3
aa(lp236
I289
aI1
aI12
ag3
aa(lp237
I289
aI22
aI13
ag3
aa(lp238
I289
aI4
aI16
ag3
aa(lp239
I289
aI3
aI17
ag3
aa(lp240
I290
aI41
aI3
ag3
aa(lp241
I290
aI57
aI3
ag3
aa(lp242
I290
aI15
aI5
ag3
aa(lp243
I290
aI6
aI11
ag3
aa(lp244
I290
aI8
aI12
ag3
aa(lp245
I290
aI4
aI17
ag3
aa(lp246
I291
aI54
aI0
ag3
aa(lp247
I291
aI42
aI4
ag3
aa(lp248
I291
aI9
aI7
ag3
aa(lp249
I291
aI36
aI8
ag3
aa(lp250
I291
aI11
aI9
ag3
aa(lp251
I291
aI4
aI18
ag3
aa(lp252
I292
aI43
aI2
ag3
aa(lp253
I292
aI50
aI3
ag3
aa(lp254
I292
aI41
aI4
ag3
aa(lp255
I292
aI12
aI7
ag3
aa(lp256
I292
aI9
aI8
ag3
aa(lp257
I292
aI8
aI13
ag3
aa(lp258
I293
aI53
aI1
ag3
aa(lp259
I293
aI29
aI2
ag3
aa(lp260
I293
aI41
aI5
ag3
aa(lp261
I293
aI15
aI6
ag3
aa(lp262
I293
aI12
aI8
ag3
aa(lp263
I293
aI1
aI13
ag3
aa(lp264
I293
aI4
aI19
ag3
aa(lp265
I294
aI24
aI0
ag3
aa(lp266
I294
aI54
aI1
ag3
aa(lp267
I294
aI5
aI4
ag3
aa(lp268
I294
aI10
aI7
ag3
aa(lp269
I294
aI7
aI8
ag3
aa(lp270
I294
aI12
aI9
ag3
aa(lp271
I295
aI54
aI2
ag3
aa(lp272
I295
aI11
aI10
ag3
aa(lp273
I295
aI1
aI14
ag3
aa(lp274
I295
aI4
aI20
ag3
aa(lp275
I296
aI52
aI0
ag3
aa(lp276
I296
aI53
aI2
ag3
aa(lp277
I296
aI57
aI4
ag3
aa(lp278
I296
aI2
aI7
ag3
aa(lp279
I296
aI13
aI9
ag3
aa(lp280
I296
aI36
aI9
ag3
aa(lp281
I296
aI6
aI12
ag3
aa(lp282
I296
aI8
aI14
ag3
aa(lp283
I296
aI4
aI21
ag3
aa(lp284
I297
aI10
aI8
ag3
aa(lp285
I297
aI13
aI10
ag3
aa(lp286
I297
aI6
aI13
ag3
aa(lp287
I297
aI1
aI15
ag3
aa(lp288
I297
aI4
aI22
ag3
aa(lp289
I298
aI41
aI6
ag3
aa(lp290
I298
aI10
aI9
ag3
aa(lp291
I298
aI6
aI14
ag3
aa(lp292
I298
aI8
aI15
ag3
aa(lp293
I298
aI4
aI23
ag3
aa(lp294
I301
aI24
aI1
ag3
aa(lp295
I301
aI39
aI1
ag3
aa(lp296
I301
aI31
aI3
ag3
aa(lp297
I301
aI57
aI5
ag3
aa(lp298
I301
aI15
aI7
ag3
aa(lp299
I301
aI7
aI9
ag3
aa(lp300
I301
aI20
aI9
ag3
aa(lp301
I301
aI12
aI10
ag3
aa(lp302
I301
aI28
aI11
ag3
aa(lp303
I301
aI8
aI16
ag3
aa(lp304
I302
aI29
aI3
ag3
aa(lp305
I302
aI16
aI4
ag3
aa(lp306
I302
aI5
aI5
ag3
aa(lp307
I302
aI25
aI5
ag3
aa(lp308
I302
aI57
aI6
ag3
aa(lp309
I302
aI12
aI11
ag3
aa(lp310
I302
aI22
aI14
ag3
aa(lp311
I302
aI6
aI15
ag3
aa(lp312
I303
aI33
aI2
ag3
aa(lp313
I303
aI9
aI9
ag3
aa(lp314
I303
aI4
aI24
ag3
aa(lp315
I305
aI24
aI2
ag3
aa(lp316
I305
aI29
aI4
ag3
aa(lp317
I305
aI14
aI5
ag3
aa(lp318
I305
aI57
aI7
ag3
aa(lp319
I305
aI10
aI10
ag3
aa(lp320
I305
aI20
aI10
ag3
aa(lp321
I305
aI13
aI11
ag3
aa(lp322
I305
aI4
aI25
ag3
aa(lp323
I306
aI29
aI5
ag3
aa(lp324
I306
aI5
aI6
ag3
aa(lp325
I306
aI57
aI8
ag3
aa(lp326
I306
aI9
aI10
ag3
aa(lp327
I306
aI22
aI15
ag3
aa(lp328
I306
aI8
aI17
ag3
aa(lp329
I307
aI18
aI5
ag3
aa(lp330
I307
aI14
aI6
ag3
aa(lp331
I307
aI36
aI10
ag3
aa(lp332
I307
aI20
aI11
ag3
aa(lp333
I307
aI4
aI26
ag3
aa(lp334
I308
aI41
aI7
ag3
aa(lp335
I308
aI11
aI11
ag3
aa(lp336
I308
aI13
aI12
ag3
aa(lp337
I308
aI28
aI12
ag3
aa(lp338
I308
aI6
aI16
ag3
aa(lp339
I308
aI22
aI16
ag3
aa(lp340
I308
aI3
aI18
ag3
aa(lp341
I310
aI51
aI2
ag3
aa(lp342
I310
aI13
aI13
ag3
aa(lp343
I310
aI6
aI17
ag3
aa(lp344
I310
aI22
aI17
ag3
aa(lp345
I310
aI4
aI27
ag3
aa(lp346
I311
aI15
aI8
ag3
aa(lp347
I311
aI20
aI12
ag3
aa(lp348
I311
aI1
aI16
ag3
aa(lp349
I311
aI6
aI18
ag3
aa(lp350
I311
aI8
aI18
ag3
aa(lp351
I311
aI4
aI28
ag3
aa(lp352
I312
aI37
aI3
ag3
aa(lp353
I312
aI18
aI6
ag3
aa(lp354
I312
aI9
aI11
ag3
aa(lp355
I312
aI10
aI11
ag3
aa(lp356
I312
aI11
aI12
ag3
aa(lp357
I312
aI13
aI14
ag3
aa(lp358
I312
aI22
aI18
ag3
aa(lp359
I312
aI3
aI19
ag3
aa(lp360
I312
aI6
aI19
ag3
aa(lp361
I313
aI38
aI0
ag3
aa(lp362
I313
aI37
aI4
ag3
aa(lp363
I313
aI16
aI5
ag3
aa(lp364
I313
aI42
aI5
ag3
aa(lp365
I313
aI25
aI6
ag3
aa(lp366
I313
aI14
aI7
ag3
aa(lp367
I313
aI2
aI8
ag3
aa(lp368
I313
aI7
aI10
ag3
aa(lp369
I313
aI36
aI11
ag3
aa(lp370
I313
aI9
aI12
ag3
aa(lp371
I313
aI10
aI12
ag3
aa(lp372
I313
aI20
aI13
ag3
aa(lp373
I313
aI1
aI17
ag3
aa(lp374
I313
aI8
aI19
ag3
aa(lp375
I313
aI22
aI19
ag3
aa(lp376
I313
aI3
aI20
ag3
aa(lp377
I313
aI4
aI29
ag3
aa(lp378
I314
aI35
aI1
ag3
aa(lp379
I314
aI29
aI6
ag3
aa(lp380
I314
aI25
aI7
ag3
aa(lp381
I314
aI1
aI18
ag3
aa(lp382
I314
aI6
aI20
ag3
aa(lp383
I314
aI22
aI20
ag3
aa(lp384
I315
aI14
aI8
ag3
aa(lp385
I315
aI9
aI13
ag3
aa(lp386
I315
aI10
aI13
ag3
aa(lp387
I315
aI11
aI13
ag3
aa(lp388
I315
aI20
aI14
ag3
aa(lp389
I315
aI1
aI19
ag3
aa(lp390
I315
aI6
aI21
ag3
aa(lp391
I315
aI4
aI30
ag3
aa(lp392
I316
aI52
aI1
ag3
aa(lp393
I316
aI41
aI8
ag3
aa(lp394
I316
aI14
aI9
ag3
aa(lp395
I316
aI28
aI13
ag3
aa(lp396
I316
aI9
aI14
ag3
aa(lp397
I316
aI10
aI14
ag3
aa(lp398
I316
aI13
aI15
ag3
aa(lp399
I316
aI22
aI21
ag3
aa(lp400
I316
aI6
aI22
ag3
aa(lp401
I317
aI55
aI1
ag3
aa(lp402
I317
aI52
aI2
ag3
aa(lp403
I317
aI43
aI3
ag3
aa(lp404
I317
aI54
aI3
ag3
aa(lp405
I317
aI5
aI7
ag3
aa(lp406
I317
aI2
aI9
ag3
aa(lp407
I317
aI7
aI11
ag3
aa(lp408
I317
aI12
aI12
ag3
aa(lp409
I317
aI36
aI12
ag3
aa(lp410
I317
aI11
aI14
ag3
aa(lp411
I317
aI9
aI15
ag3
aa(lp412
I317
aI20
aI15
ag3
aa(lp413
I317
aI13
aI16
ag3
aa(lp414
I317
aI1
aI20
ag3
aa(lp415
I317
aI22
aI22
ag3
aa(lp416
I317
aI4
aI31
ag3
aa(lp417
I318
aI24
aI3
ag3
aa(lp418
I318
aI5
aI8
ag3
aa(lp419
I318
aI15
aI9
ag3
aa(lp420
I318
aI41
aI9
ag3
aa(lp421
I318
aI14
aI10
ag3
aa(lp422
I318
aI1
aI21
ag3
aa(lp423
I318
aI6
aI23
ag3
aa(lp424
I318
aI22
aI23
ag3
aa(lp425
I318
aI4
aI32
ag3
aa(lp426
I319
aI9
aI16
ag3
aa(lp427
I319
aI22
aI24
ag3
aa(lp428
I319
aI4
aI33
ag3
aa(lp429
I320
aI53
aI3
ag3
aa(lp430
I320
aI16
aI6
ag3
aa(lp431
I320
aI42
aI6
ag3
aa(lp432
I320
aI29
aI7
ag3
aa(lp433
I320
aI8
aI20
ag3
aa(lp434
I320
aI3
aI21
ag3
aa(lp435
I320
aI4
aI34
ag3
aa(lp436
I321
aI31
aI4
ag3
aa(lp437
I321
aI50
aI4
ag3
aa(lp438
I321
aI29
aI8
ag3
aa(lp439
I321
aI7
aI12
ag3
aa(lp440
I321
aI10
aI15
ag3
aa(lp441
I321
aI20
aI16
ag3
aa(lp442
I321
aI9
aI17
ag3
aa(lp443
I321
aI1
aI22
ag3
aa(lp444
I321
aI4
aI35
ag3
aa(lp445
I322
aI16
aI7
ag3
aa(lp446
I322
aI29
aI9
ag3
aa(lp447
I324
aI19
aI3
ag3
aa(lp448
I324
aI54
aI4
ag3
aa(lp449
I324
aI25
aI8
ag3
aa(lp450
I324
aI15
aI10
ag3
aa(lp451
I324
aI12
aI13
ag3
aa(lp452
I324
aI36
aI13
ag3
aa(lp453
I324
aI11
aI15
ag3
aa(lp454
I324
aI10
aI16
ag3
aa(lp455
I324
aI9
aI18
ag3
aa(lp456
I324
aI6
aI24
ag3
aa(lp457
I325
aI35
aI2
ag3
aa(lp458
I325
aI51
aI3
ag3
aa(lp459
I325
aI16
aI8
ag3
aa(lp460
I325
aI29
aI10
ag3
aa(lp461
I325
aI36
aI14
ag3
aa(lp462
I325
aI11
aI16
ag3
aa(lp463
I325
aI10
aI17
ag3
aa(lp464
I325
aI8
aI21
ag3
aa(lp465
I325
aI1
aI23
ag3
aa(lp466
I325
aI4
aI36
ag3
aa(lp467
I326
aI37
aI5
ag3
aa(lp468
I326
aI29
aI11
ag3
aa(lp469
I326
aI12
aI14
ag3
aa(lp470
I326
aI6
aI25
ag3
aa(lp471
I327
aI43
aI4
ag3
aa(lp472
I327
aI18
aI7
ag3
aa(lp473
I327
aI14
aI11
ag3
aa(lp474
I327
aI3
aI22
ag3
aa(lp475
I327
aI1
aI24
ag3
aa(lp476
I327
aI6
aI26
ag3
aa(lp477
I328
aI33
aI3
ag3
aa(lp478
I328
aI19
aI4
ag3
aa(lp479
I328
aI15
aI11
ag3
aa(lp480
I328
aI14
aI12
ag3
aa(lp481
I328
aI28
aI14
ag3
aa(lp482
I328
aI11
aI17
ag3
aa(lp483
I328
aI3
aI23
ag3
aa(lp484
I328
aI6
aI27
ag3
aa(lp485
I328
aI4
aI37
ag3
aa(lp486
I329
aI55
aI2
ag3
aa(lp487
I329
aI31
aI5
ag3
aa(lp488
I329
aI7
aI13
ag3
aa(lp489
I329
aI14
aI13
ag3
aa(lp490
I329
aI36
aI15
ag3
aa(lp491
I329
aI20
aI17
ag3
aa(lp492
I329
aI10
aI18
ag3
aa(lp493
I329
aI11
aI18
ag3
aa(lp494
I329
aI8
aI22
ag3
aa(lp495
I329
aI3
aI24
ag3
aa(lp496
I329
aI1
aI25
ag3
aa(lp497
I329
aI22
aI25
ag3
aa(lp498
I329
aI6
aI28
ag3
aa(lp499
I330
aI18
aI8
ag3
aa(lp500
I330
aI57
aI9
ag3
aa(lp501
I330
aI15
aI12
ag3
aa(lp502
I330
aI10
aI19
ag3
aa(lp503
I330
aI11
aI19
ag3
aa(lp504
I330
aI8
aI23
ag3
aa(lp505
I330
aI22
aI26
ag3
aa(lp506
I330
aI4
aI38
ag3
aa(lp507
I331
aI43
aI5
ag3
aa(lp508
I331
aI20
aI18
ag3
aa(lp509
I331
aI3
aI25
ag3
aa(lp510
I332
aI55
aI3
ag3
aa(lp511
I332
aI51
aI4
ag3
aa(lp512
I332
aI16
aI9
ag3
aa(lp513
I332
aI41
aI10
ag3
aa(lp514
I332
aI14
aI14
ag3
aa(lp515
I332
aI13
aI17
ag3
aa(lp516
I332
aI9
aI19
ag3
aa(lp517
I332
aI11
aI20
ag3
aa(lp518
I332
aI3
aI26
ag3
aa(lp519
I332
aI22
aI27
ag3
aa(lp520
I332
aI6
aI29
ag3
aa(lp521
I332
aI4
aI39
ag3
aa(lp522
I333
aI51
aI5
ag3
aa(lp523
I333
aI31
aI6
ag3
aa(lp524
I333
aI15
aI13
ag3
aa(lp525
I333
aI12
aI15
ag3
aa(lp526
I333
aI14
aI15
ag3
aa(lp527
I333
aI13
aI18
ag3
aa(lp528
I333
aI20
aI19
ag3
aa(lp529
I333
aI9
aI20
ag3
aa(lp530
I333
aI8
aI24
ag3
aa(lp531
I333
aI1
aI26
ag3
aa(lp532
I333
aI3
aI27
ag3
aa(lp533
I334
aI25
aI9
ag3
aa(lp534
I334
aI29
aI12
ag3
aa(lp535
I334
aI15
aI14
ag3
aa(lp536
I334
aI10
aI20
ag3
aa(lp537
I334
aI11
aI21
ag3
aa(lp538
I334
aI22
aI28
ag3
aa(lp539
I334
aI6
aI30
ag3
aa(lp540
I334
aI4
aI40
ag3
aa(lp541
I335
aI35
aI3
ag3
aa(lp542
I335
aI36
aI16
ag3
aa(lp543
I335
aI20
aI20
ag3
aa(lp544
I335
aI9
aI21
ag3
aa(lp545
I335
aI3
aI28
ag3
aa(lp546
I335
aI22
aI29
ag3
aa(lp547
I335
aI4
aI41
ag3
aa(lp548
I336
aI28
aI15
ag3
aa(lp549
I336
aI13
aI19
ag3
aa(lp550
I337
aI2
aI10
ag3
aa(lp551
I337
aI15
aI15
ag3
aa(lp552
I337
aI12
aI16
ag3
aa(lp553
I337
aI10
aI21
ag3
aa(lp554
I338
aI35
aI4
ag3
aa(lp555
I338
aI51
aI6
ag3
aa(lp556
I338
aI41
aI11
ag3
aa(lp557
I338
aI15
aI16
ag3
aa(lp558
I338
aI8
aI25
ag3
aa(lp559
I338
aI22
aI30
ag3
aa(lp560
I338
aI6
aI31
ag3
aa(lp561
I339
aI36
aI17
ag3
aa(lp562
I339
aI20
aI21
ag3
aa(lp563
I339
aI1
aI27
ag3
aa(lp564
I339
aI3
aI29
ag3
aa(lp565
I339
aI6
aI32
ag3
aa(lp566
I339
aI4
aI42
ag3
aa(lp567
I340
aI33
aI4
ag3
aa(lp568
I340
aI37
aI6
ag3
aa(lp569
I340
aI43
aI6
ag3
aa(lp570
I340
aI51
aI7
ag3
aa(lp571
I340
aI14
aI16
ag3
aa(lp572
I340
aI28
aI16
ag3
aa(lp573
I340
aI15
aI17
ag3
aa(lp574
I340
aI9
aI22
ag3
aa(lp575
I340
aI10
aI22
ag3
aa(lp576
I340
aI11
aI22
ag3
aa(lp577
I340
aI8
aI26
ag3
aa(lp578
I340
aI3
aI30
ag3
aa(lp579
I340
aI22
aI31
ag3
aa(lp580
I340
aI6
aI33
ag3
aa(lp581
I341
aI42
aI7
ag3
aa(lp582
I341
aI25
aI10
ag3
aa(lp583
I341
aI7
aI14
ag3
aa(lp584
I341
aI15
aI18
ag3
aa(lp585
I341
aI20
aI22
ag3
aa(lp586
I341
aI9
aI23
ag3
aa(lp587
I341
aI10
aI23
ag3
aa(lp588
I341
aI11
aI23
ag3
aa(lp589
I341
aI8
aI27
ag3
aa(lp590
I341
aI1
aI28
ag3
aa(lp591
I341
aI3
aI31
ag3
aa(lp592
I341
aI4
aI43
ag3
aa(lp593
I342
aI37
aI7
ag3
aa(lp594
I342
aI51
aI8
ag3
aa(lp595
I342
aI10
aI24
ag3
aa(lp596
I342
aI8
aI28
ag3
aa(lp597
I342
aI22
aI32
ag3
aa(lp598
I342
aI6
aI34
ag3
aa(lp599
I342
aI4
aI44
ag3
aa(lp600
I345
aI35
aI5
ag3
aa(lp601
I345
aI18
aI9
ag3
aa(lp602
I345
aI14
aI17
ag3
aa(lp603
I345
aI15
aI19
ag3
aa(lp604
I345
aI1
aI29
ag3
aa(lp605
I345
aI3
aI32
ag3
aa(lp606
I345
aI4
aI45
ag3
aa(lp607
I346
aI42
aI8
ag3
aa(lp608
I346
aI25
aI11
ag3
aa(lp609
I346
aI28
aI17
ag3
aa(lp610
I346
aI1
aI30
ag3
aa(lp611
I347
aI2
aI11
ag3
aa(lp612
I347
aI36
aI18
ag3
aa(lp613
I347
aI20
aI23
ag3
aa(lp614
I347
aI9
aI24
ag3
aa(lp615
I347
aI11
aI24
ag3
aa(lp616
I347
aI8
aI29
ag3
aa(lp617
I347
aI1
aI31
ag3
aa(lp618
I347
aI22
aI33
ag3
aa(lp619
I347
aI6
aI35
ag3
aa(lp620
I347
aI4
aI46
ag3
aa(lp621
I348
aI50
aI5
ag3
aa(lp622
I348
aI54
aI5
ag3
aa(lp623
I348
aI43
aI7
ag3
aa(lp624
I348
aI29
aI13
ag3
aa(lp625
I348
aI9
aI25
ag3
aa(lp626
I348
aI6
aI36
ag3
aa(lp627
I349
aI31
aI7
ag3
aa(lp628
I349
aI37
aI8
ag3
aa(lp629
I349
aI16
aI10
ag3
aa(lp630
I349
aI29
aI14
ag3
aa(lp631
I349
aI7
aI15
ag3
aa(lp632
I349
aI12
aI17
ag3
aa(lp633
I349
aI36
aI19
ag3
aa(lp634
I349
aI15
aI20
ag3
aa(lp635
I349
aI9
aI26
ag3
aa(lp636
I349
aI8
aI30
ag3
aa(lp637
I349
aI1
aI32
ag3
aa(lp638
I349
aI22
aI34
ag3
aa(lp639
I349
aI6
aI37
ag3
aa(lp640
I349
aI4
aI47
ag3
aa(lp641
I350
aI5
aI9
ag3
aa(lp642
I350
aI16
aI11
ag3
aa(lp643
I350
aI2
aI12
ag3
aa(lp644
I350
aI10
aI25
ag3
aa(lp645
I350
aI22
aI35
ag3
aa(lp646
I350
aI6
aI38
ag3
aa(lp647
I350
aI4
aI48
ag3
aa(lp648
I351
aI9
aI27
ag3
aa(lp649
I351
aI22
aI36
ag3
aa(lp650
I352
aI53
aI4
ag3
aa(lp651
I352
aI42
aI9
ag3
aa(lp652
I352
aI5
aI10
ag3
aa(lp653
I352
aI12
aI18
ag3
aa(lp654
I352
aI36
aI20
ag3
aa(lp655
I352
aI10
aI26
ag3
aa(lp656
I352
aI8
aI31
ag3
aa(lp657
I352
aI1
aI33
ag3
aa(lp658
I352
aI4
aI49
ag3
aa(lp659
I353
aI40
aI1
ag3
aa(lp660
I353
aI39
aI2
ag3
aa(lp661
I353
aI24
aI4
ag3
aa(lp662
I353
aI2
aI13
ag3
aa(lp663
I353
aI12
aI19
ag3
aa(lp664
I353
aI13
aI20
ag3
aa(lp665
I353
aI15
aI21
ag3
aa(lp666
I353
aI36
aI21
ag3
aa(lp667
I353
aI10
aI27
ag3
aa(lp668
I353
aI9
aI28
ag3
aa(lp669
I353
aI3
aI33
ag3
aa(lp670
I353
aI4
aI50
ag3
aa(lp671
I354
aI25
aI12
ag3
aa(lp672
I354
aI2
aI14
ag3
aa(lp673
I354
aI29
aI15
ag3
aa(lp674
I354
aI12
aI20
ag3
aa(lp675
I354
aI10
aI28
ag3
aa(lp676
I354
aI4
aI51
ag3
aa(lp677
I355
aI54
aI6
ag3
aa(lp678
I355
aI9
aI29
ag3
aa(lp679
I355
aI8
aI32
ag3
aa(lp680
I363
aI14
aI18
ag3
aa(lp681
I363
aI13
aI21
ag3
aa(lp682
I363
aI20
aI24
ag3
aa(lp683
I363
aI3
aI34
ag3
aa(lp684
I363
aI4
aI52
ag3
aa(lp685
I364
aI37
aI9
ag3
aa(lp686
I364
aI51
aI9
ag3
aa(lp687
I364
aI28
aI18
ag3
aa(lp688
I364
aI14
aI19
ag3
aa(lp689
I364
aI12
aI21
ag3
aa(lp690
I364
aI13
aI22
ag3
aa(lp691
I364
aI11
aI25
ag3
aa(lp692
I364
aI10
aI29
ag3
aa(lp693
I364
aI3
aI35
ag3
aa(lp694
I364
aI22
aI37
ag3
aa(lp695
I364
aI6
aI39
ag3
aa(lp696
I365
aI40
aI2
ag3
aa(lp697
I365
aI25
aI13
ag3
aa(lp698
I365
aI15
aI22
ag3
aa(lp699
I365
aI13
aI23
ag3
aa(lp700
I365
aI20
aI25
ag3
aa(lp701
I365
aI8
aI33
ag3
aa(lp702
I365
aI3
aI36
ag3
aa(lp703
I365
aI4
aI53
ag3
aa(lp704
I369
aI38
aI1
ag3
aa(lp705
I369
aI43
aI8
ag3
aa(lp706
I369
aI16
aI12
ag3
aa(lp707
I369
aI7
aI16
ag3
aa(lp708
I369
aI15
aI23
ag3
aa(lp709
I369
aI11
aI26
ag3
aa(lp710
I369
aI1
aI34
ag3
aa(lp711
I369
aI3
aI37
ag3
aa(lp712
I369
aI22
aI38
ag3
aa(lp713
I369
aI4
aI54
ag3
aa(lp714
I370
aI38
aI2
ag3
aa(lp715
I370
aI16
aI13
ag3
aa(lp716
I370
aI2
aI15
ag3
aa(lp717
I371
aI1
aI35
ag3
aa(lp718
I371
aI3
aI38
ag3
aa(lp719
I371
aI4
aI55
ag3
aa(lp720
I372
aI38
aI3
ag3
aa(lp721
I372
aI39
aI3
ag3
aa(lp722
I372
aI33
aI5
ag3
aa(lp723
I372
aI50
aI6
ag3
aa(lp724
I372
aI37
aI10
ag3
aa(lp725
I372
aI42
aI10
ag3
aa(lp726
I372
aI51
aI10
ag3
aa(lp727
I372
aI25
aI14
ag3
aa(lp728
I372
aI28
aI19
ag3
aa(lp729
I372
aI13
aI24
ag3
aa(lp730
I372
aI15
aI24
ag3
aa(lp731
I372
aI20
aI26
ag3
aa(lp732
I372
aI8
aI34
ag3
aa(lp733
I372
aI3
aI39
ag3
aa(lp734
I372
aI6
aI40
ag3
aa(lp735
I373
aI38
aI4
ag3
aa(lp736
I373
aI39
aI4
ag3
aa(lp737
I373
aI57
aI10
ag3
aa(lp738
I373
aI25
aI15
ag3
aa(lp739
I373
aI29
aI16
ag3
aa(lp740
I373
aI7
aI17
ag3
aa(lp741
I373
aI13
aI25
ag3
aa(lp742
I373
aI15
aI25
ag3
aa(lp743
I373
aI9
aI30
ag3
aa(lp744
I373
aI8
aI35
ag3
aa(lp745
I373
aI3
aI40
ag3
aa(lp746
I374
aI24
aI5
ag3
aa(lp747
I374
aI25
aI16
ag3
aa(lp748
I374
aI13
aI26
ag3
aa(lp749
I374
aI15
aI26
ag3
aa(lp750
I374
aI3
aI41
ag3
aa(lp751
I374
aI6
aI41
ag3
aa(lp752
I375
aI29
aI17
ag3
aa(lp753
I375
aI1
aI36
ag3
aa(lp754
I376
aI30
aI0
ag3
aa(lp755
I376
aI39
aI5
ag3
aa(lp756
I376
aI53
aI5
ag3
aa(lp757
I376
aI43
aI9
ag3
aa(lp758
I376
aI51
aI11
ag3
aa(lp759
I376
aI13
aI27
ag3
aa(lp760
I376
aI20
aI27
ag3
aa(lp761
I376
aI10
aI30
ag3
aa(lp762
I376
aI9
aI31
ag3
aa(lp763
I376
aI8
aI36
ag3
aa(lp764
I377
aI39
aI6
ag3
aa(lp765
I377
aI53
aI6
ag3
aa(lp766
I377
aI37
aI11
ag3
aa(lp767
I377
aI51
aI12
ag3
aa(lp768
I377
aI7
aI18
ag3
aa(lp769
I377
aI29
aI18
ag3
aa(lp770
I377
aI14
aI20
ag3
aa(lp771
I377
aI15
aI27
ag3
aa(lp772
I377
aI13
aI28
ag3
aa(lp773
I377
aI20
aI28
ag3
aa(lp774
I377
aI10
aI31
ag3
aa(lp775
I377
aI9
aI32
ag3
aa(lp776
I377
aI1
aI37
ag3
aa(lp777
I377
aI8
aI37
ag3
aa(lp778
I378
aI2
aI16
ag3
aa(lp779
I378
aI7
aI19
ag3
aa(lp780
I378
aI10
aI32
ag3
aa(lp781
I378
aI1
aI38
ag3
aa(lp782
I379
aI52
aI3
ag3
aa(lp783
I379
aI49
aI4
ag3
aa(lp784
I379
aI9
aI33
ag3
aa(lp785
I379
aI10
aI33
ag3
aa(lp786
I379
aI1
aI39
ag3
aa(lp787
I383
aI18
aI10
ag3
aa(lp788
I383
aI36
aI22
ag3
aa(lp789
I383
aI20
aI29
ag3
aa(lp790
I383
aI1
aI40
ag3
aa(lp791
I383
aI3
aI42
ag3
aa(lp792
I384
aI18
aI11
ag3
aa(lp793
I384
aI16
aI14
ag3
aa(lp794
I384
aI2
aI17
ag3
aa(lp795
I384
aI28
aI20
ag3
aa(lp796
I384
aI14
aI21
ag3
aa(lp797
I384
aI11
aI27
ag3
aa(lp798
I384
aI15
aI28
ag3
aa(lp799
I384
aI9
aI34
ag3
aa(lp800
I384
aI22
aI39
ag3
aa(lp801
I384
aI3
aI43
ag3
aa(lp802
I385
aI5
aI11
ag3
aa(lp803
I385
aI18
aI12
ag3
aa(lp804
I385
aI37
aI12
ag3
aa(lp805
I385
aI12
aI22
ag3
aa(lp806
I385
aI36
aI23
ag3
aa(lp807
I385
aI11
aI28
ag3
aa(lp808
I385
aI15
aI29
ag3
aa(lp809
I385
aI20
aI30
ag3
aa(lp810
I385
aI10
aI34
ag3
aa(lp811
I385
aI8
aI38
ag3
aa(lp812
I385
aI1
aI41
ag3
aa(lp813
I385
aI3
aI44
ag3
aa(lp814
I386
aI47
aI0
ag3
aa(lp815
I386
aI40
aI3
ag3
aa(lp816
I386
aI57
aI11
ag3
aa(lp817
I386
aI2
aI18
ag3
aa(lp818
I386
aI12
aI23
ag3
aa(lp819
I386
aI11
aI29
ag3
aa(lp820
I386
aI22
aI40
ag3
aa(lp821
I386
aI1
aI42
ag3
aa(lp822
I387
aI12
aI24
ag3
aa(lp823
I387
aI9
aI35
ag3
aa(lp824
I387
aI4
aI56
ag3
aa(lp825
I389
aI45
aI0
ag3
aa(lp826
I389
aI37
aI13
ag3
aa(lp827
I389
aI16
aI15
ag3
aa(lp828
I389
aI15
aI30
ag3
aa(lp829
I389
aI22
aI41
ag3
aa(lp830
I390
aI33
aI6
ag3
aa(lp831
I390
aI41
aI12
ag3
aa(lp832
I390
aI18
aI13
ag3
aa(lp833
I390
aI28
aI21
ag3
aa(lp834
I390
aI11
aI30
ag3
aa(lp835
I390
aI8
aI39
ag3
aa(lp836
I390
aI6
aI42
ag3
aa(lp837
I390
aI22
aI42
ag3
aa(lp838
I391
aI18
aI14
ag3
aa(lp839
I391
aI36
aI24
ag3
aa(lp840
I391
aI20
aI31
ag3
aa(lp841
I391
aI3
aI45
ag3
aa(lp842
I392
aI45
aI1
ag3
aa(lp843
I392
aI31
aI8
ag3
aa(lp844
I392
aI2
aI19
ag3
aa(lp845
I392
aI7
aI20
ag3
aa(lp846
I392
aI14
aI22
ag3
aa(lp847
I392
aI12
aI25
ag3
aa(lp848
I392
aI13
aI29
ag3
aa(lp849
I392
aI11
aI31
ag3
aa(lp850
I392
aI6
aI43
ag3
aa(lp851
I392
aI22
aI43
ag3
aa(lp852
I392
aI3
aI46
ag3
aa(lp853
I392
aI4
aI57
ag3
aa(lp854
I393
aI46
aI0
ag3
aa(lp855
I393
aI42
aI11
ag3
aa(lp856
I393
aI57
aI12
ag3
aa(lp857
I393
aI18
aI15
ag3
aa(lp858
I393
aI25
aI17
ag3
aa(lp859
I393
aI2
aI20
ag3
aa(lp860
I393
aI28
aI22
ag3
aa(lp861
I393
aI36
aI25
ag3
aa(lp862
I393
aI12
aI26
ag3
aa(lp863
I393
aI13
aI30
ag3
aa(lp864
I393
aI15
aI31
ag3
aa(lp865
I393
aI20
aI32
ag3
aa(lp866
I393
aI10
aI35
ag3
aa(lp867
I393
aI1
aI43
ag3
aa(lp868
I393
aI22
aI44
ag3
aa(lp869
I393
aI3
aI47
ag3
aa(lp870
I394
aI46
aI1
ag3
aa(lp871
I394
aI41
aI13
ag3
aa(lp872
I394
aI37
aI14
ag3
aa(lp873
I394
aI28
aI23
ag3
aa(lp874
I394
aI8
aI40
ag3
aa(lp875
I394
aI6
aI44
ag3
aa(lp876
I394
aI22
aI45
ag3
aa(lp877
I394
aI4
aI58
ag3
aa(lp878
I395
aI20
aI33
ag3
aa(lp879
I395
aI8
aI41
ag3
aa(lp880
I395
aI1
aI44
ag3
aa(lp881
I395
aI3
aI48
ag3
aa(lp882
I396
aI46
aI2
ag3
aa(lp883
I396
aI28
aI24
ag3
aa(lp884
I396
aI6
aI45
ag3
aa(lp885
I396
aI22
aI46
ag3
aa(lp886
I397
aI39
aI7
ag3
aa(lp887
I397
aI7
aI21
ag3
aa(lp888
I397
aI12
aI27
ag3
aa(lp889
I398
aI5
aI12
ag3
aa(lp890
I399
aI41
aI14
ag3
aa(lp891
I399
aI18
aI16
ag3
aa(lp892
I399
aI7
aI22
ag3
aa(lp893
I399
aI14
aI23
ag3
aa(lp894
I399
aI36
aI26
ag3
aa(lp895
I399
aI20
aI34
ag3
aa(lp896
I399
aI10
aI36
ag3
aa(lp897
I399
aI8
aI42
ag3
aa(lp898
I399
aI1
aI45
ag3
aa(lp899
I399
aI3
aI49
ag3
aa(lp900
I399
aI4
aI59
ag3
aa(lp901
I400
aI46
aI3
ag3
aa(lp902
I400
aI33
aI7
ag3
aa(lp903
I400
aI37
aI15
ag3
aa(lp904
I400
aI14
aI24
ag3
aa(lp905
I400
aI28
aI25
ag3
aa(lp906
I400
aI12
aI28
ag3
aa(lp907
I400
aI13
aI31
ag3
aa(lp908
I400
aI11
aI32
ag3
aa(lp909
I400
aI15
aI32
ag3
aa(lp910
I400
aI9
aI36
ag3
aa(lp911
I400
aI10
aI37
ag3
aa(lp912
I400
aI6
aI46
ag3
aa(lp913
I400
aI22
aI47
ag3
aa(lp914
I400
aI3
aI50
ag3
aa(lp915
I401
aI33
aI8
ag3
aa(lp916
I401
aI42
aI12
ag3
aa(lp917
I401
aI57
aI13
ag3
aa(lp918
I401
aI37
aI16
ag3
aa(lp919
I401
aI18
aI17
ag3
aa(lp920
I401
aI25
aI18
ag3
aa(lp921
I401
aI2
aI21
ag3
aa(lp922
I401
aI7
aI23
ag3
aa(lp923
I401
aI14
aI25
ag3
aa(lp924
I401
aI28
aI26
ag3
aa(lp925
I401
aI36
aI27
ag3
aa(lp926
I401
aI13
aI32
ag3
aa(lp927
I401
aI11
aI33
ag3
aa(lp928
I401
aI15
aI33
ag3
aa(lp929
I401
aI20
aI35
ag3
aa(lp930
I401
aI8
aI43
ag3
aa(lp931
I401
aI1
aI46
ag3
aa(lp932
I401
aI22
aI48
ag3
aa(lp933
I401
aI3
aI51
ag3
aa(lp934
I401
aI4
aI60
ag3
aa(lp935
I402
aI37
aI17
ag3
aa(lp936
I402
aI1
aI47
ag3
aa(lp937
I402
aI22
aI49
ag3
aa(lp938
I403
aI53
aI7
ag3
aa(lp939
I403
aI25
aI19
ag3
aa(lp940
I403
aI11
aI34
ag3
aa(lp941
I403
aI20
aI36
ag3
aa(lp942
I403
aI4
aI61
ag3
aa(lp943
I404
aI52
aI4
ag3
aa(lp944
I404
aI42
aI13
ag3
aa(lp945
I404
aI29
aI19
ag3
aa(lp946
I404
aI25
aI20
ag3
aa(lp947
I404
aI2
aI22
ag3
aa(lp948
I404
aI11
aI35
ag3
aa(lp949
I404
aI20
aI37
ag3
aa(lp950
I404
aI10
aI38
ag3
aa(lp951
I404
aI22
aI50
ag3
aa(lp952
I404
aI3
aI52
ag3
aa(lp953
I405
aI46
aI4
ag3
aa(lp954
I405
aI55
aI4
ag3
aa(lp955
I405
aI53
aI8
ag3
aa(lp956
I405
aI5
aI13
ag3
aa(lp957
I405
aI37
aI18
ag3
aa(lp958
I405
aI29
aI20
ag3
aa(lp959
I405
aI12
aI29
ag3
aa(lp960
I405
aI15
aI34
ag3
aa(lp961
I405
aI22
aI51
ag3
aa(lp962
I405
aI3
aI53
ag3
aa(lp963
I405
aI4
aI62
ag3
aa(lp964
I406
aI52
aI5
ag3
aa(lp965
I406
aI37
aI19
ag3
aa(lp966
I406
aI6
aI47
ag3
aa(lp967
I406
aI22
aI52
ag3
aa(lp968
I406
aI4
aI63
ag3
aa(lp969
I407
aI46
aI5
ag3
aa(lp970
I407
aI43
aI10
ag3
aa(lp971
I407
aI20
aI38
ag3
aa(lp972
I407
aI10
aI39
ag3
aa(lp973
I407
aI1
aI48
ag3
aa(lp974
I408
aI53
aI9
ag3
aa(lp975
I408
aI29
aI21
ag3
aa(lp976
I408
aI7
aI24
ag3
aa(lp977
I408
aI36
aI28
ag3
aa(lp978
I408
aI13
aI33
ag3
aa(lp979
I408
aI8
aI44
ag3
aa(lp980
I408
aI4
aI64
ag3
aa(lp981
I409
aI50
aI7
ag3
aa(lp982
I409
aI29
aI22
ag3
aa(lp983
I409
aI2
aI23
ag3
aa(lp984
I409
aI7
aI25
ag3
aa(lp985
I409
aI36
aI29
ag3
aa(lp986
I409
aI12
aI30
ag3
aa(lp987
I409
aI13
aI34
ag3
aa(lp988
I409
aI15
aI35
ag3
aa(lp989
I409
aI20
aI39
ag3
aa(lp990
I409
aI10
aI40
ag3
aa(lp991
I409
aI1
aI49
ag3
aa(lp992
I409
aI22
aI53
ag3
aa(lp993
I409
aI4
aI65
ag3
aa(lp994
I410
aI47
aI1
ag3
aa(lp995
I410
aI24
aI6
ag3
aa(lp996
I410
aI41
aI15
ag3
aa(lp997
I410
aI22
aI54
ag3
aa(lp998
I411
aI45
aI2
ag3
aa(lp999
I411
aI20
aI40
ag3
aa(lp1000
I411
aI10
aI41
ag3
aa(lp1001
I411
aI1
aI50
ag3
aa(lp1002
I411
aI3
aI54
ag3
aa(lp1003
I412
aI27
aI3
ag3
aa(lp1004
I412
aI39
aI8
ag3
aa(lp1005
I412
aI33
aI9
ag3
aa(lp1006
I412
aI43
aI11
ag3
aa(lp1007
I412
aI16
aI16
ag3
aa(lp1008
I412
aI2
aI24
ag3
aa(lp1009
I412
aI14
aI26
ag3
aa(lp1010
I412
aI28
aI27
ag3
aa(lp1011
I412
aI12
aI31
ag3
aa(lp1012
I412
aI11
aI36
ag3
aa(lp1013
I412
aI9
aI37
ag3
aa(lp1014
I412
aI8
aI45
ag3
aa(lp1015
I412
aI3
aI55
ag3
aa(lp1016
I412
aI22
aI55
ag3
aa(lp1017
I412
aI4
aI66
ag3
aa(lp1018
I413
aI19
aI5
ag3
aa(lp1019
I413
aI25
aI21
ag3
aa(lp1020
I413
aI2
aI25
ag3
aa(lp1021
I413
aI7
aI26
ag3
aa(lp1022
I413
aI36
aI30
ag3
aa(lp1023
I413
aI12
aI32
ag3
aa(lp1024
I413
aI11
aI37
ag3
aa(lp1025
I413
aI20
aI41
ag3
aa(lp1026
I413
aI10
aI42
ag3
aa(lp1027
I413
aI1
aI51
ag3
aa(lp1028
I413
aI3
aI56
ag3
aa(lp1029
I413
aI4
aI67
ag3
aa(lp1030
I414
aI18
aI18
ag3
aa(lp1031
I414
aI12
aI33
ag3
aa(lp1032
I414
aI9
aI38
ag3
aa(lp1033
I414
aI8
aI46
ag3
aa(lp1034
I414
aI6
aI48
ag3
aa(lp1035
I414
aI1
aI52
ag3
aa(lp1036
I414
aI22
aI56
aS'test'
p1037
aa(lp1038
I414
aI4
aI68
ag3
aa(lp1039
I415
aI18
aI19
ag3
aa(lp1040
I415
aI36
aI31
ag3
aa(lp1041
I415
aI20
aI42
ag3
aa(lp1042
I415
aI6
aI49
ag3
aa(lp1043
I415
aI3
aI57
ag3
aa(lp1044
I415
aI4
aI69
ag3
aa(lp1045
I416
aI33
aI10
ag3
aa(lp1046
I416
aI16
aI17
ag3
aa(lp1047
I416
aI37
aI20
ag3
aa(lp1048
I416
aI29
aI23
ag3
aa(lp1049
I416
aI2
aI26
ag3
aa(lp1050
I416
aI14
aI27
ag3
aa(lp1051
I416
aI28
aI28
ag3
aa(lp1052
I416
aI13
aI35
ag3
aa(lp1053
I416
aI11
aI38
ag3
aa(lp1054
I416
aI9
aI39
ag3
aa(lp1055
I416
aI10
aI43
ag3
aa(lp1056
I416
aI6
aI50
ag3
aa(lp1057
I416
aI1
aI53
ag3
aa(lp1058
I416
aI3
aI58
ag3
aa(lp1059
I417
aI43
aI12
ag3
aa(lp1060
I417
aI42
aI14
ag3
aa(lp1061
I417
aI25
aI22
ag3
aa(lp1062
I417
aI2
aI27
ag3
aa(lp1063
I417
aI14
aI28
ag3
aa(lp1064
I417
aI28
aI29
ag3
aa(lp1065
I417
aI13
aI36
ag3
aa(lp1066
I417
aI15
aI36
ag3
aa(lp1067
I417
aI11
aI39
ag3
aa(lp1068
I417
aI20
aI43
ag3
aa(lp1069
I417
aI10
aI44
ag3
aa(lp1070
I417
aI8
aI47
ag3
aa(lp1071
I417
aI1
aI54
ag3
aa(lp1072
I417
aI3
aI59
ag3
aa(lp1073
I417
aI4
aI70
ag3
aa(lp1074
I418
aI18
aI20
ag3
aa(lp1075
I418
aI11
aI40
ag3
aa(lp1076
I418
aI10
aI45
ag3
aa(lp1077
I418
aI6
aI51
ag3
aa(lp1078
I419
aI45
aI3
ag3
aa(lp1079
I419
aI25
aI23
ag3
aa(lp1080
I419
aI14
aI29
ag3
aa(lp1081
I419
aI9
aI40
ag3
aa(lp1082
I419
aI20
aI44
ag3
aa(lp1083
I419
aI1
aI55
ag3
aa(lp1084
I419
aI3
aI60
ag3
aa(lp1085
I419
aI4
aI71
ag3
aa(lp1086
I420
aI47
aI2
ag3
aa(lp1087
I420
aI27
aI4
ag3
aa(lp1088
I420
aI52
aI6
ag3
aa(lp1089
I420
aI43
aI13
ag3
aa(lp1090
I420
aI2
aI28
ag3
aa(lp1091
I420
aI28
aI30
ag3
aa(lp1092
I420
aI12
aI34
ag3
aa(lp1093
I420
aI13
aI37
ag3
aa(lp1094
I420
aI11
aI41
ag3
aa(lp1095
I420
aI22
aI57
ag1037
aa(lp1096
I420
aI3
aI61
ag3
aa(lp1097
I421
aI52
aI7
ag3
aa(lp1098
I421
aI42
aI15
ag3
aa(lp1099
I421
aI7
aI27
ag3
aa(lp1100
I421
aI2
aI29
ag3
aa(lp1101
I421
aI14
aI30
ag3
aa(lp1102
I421
aI36
aI32
ag3
aa(lp1103
I421
aI12
aI35
ag3
aa(lp1104
I421
aI13
aI38
ag3
aa(lp1105
I421
aI11
aI42
ag3
aa(lp1106
I421
aI20
aI45
ag3
aa(lp1107
I421
aI10
aI46
ag3
aa(lp1108
I421
aI8
aI48
ag3
aa(lp1109
I421
aI3
aI62
ag3
aa(lp1110
I421
aI4
aI72
ag3
aa(lp1111
I422
aI16
aI18
ag3
aa(lp1112
I422
aI9
aI41
ag3
aa(lp1113
I422
aI8
aI49
ag3
aa(lp1114
I422
aI6
aI52
ag3
aa(lp1115
I422
aI1
aI56
ag3
aa(lp1116
I422
aI22
aI58
ag1037
aa(lp1117
I422
aI4
aI73
ag3
aa(lp1118
I423
aI45
aI4
ag3
aa(lp1119
I423
aI57
aI14
ag3
aa(lp1120
I423
aI18
aI21
ag3
aa(lp1121
I423
aI14
aI31
ag3
aa(lp1122
I423
aI36
aI33
ag3
aa(lp1123
I423
aI20
aI46
ag3
aa(lp1124
I423
aI8
aI50
ag3
aa(lp1125
I423
aI1
aI57
ag3
aa(lp1126
I423
aI3
aI63
ag3
aa(lp1127
I423
aI4
aI74
ag3
aa(lp1128
I424
aI16
aI19
ag3
aa(lp1129
I424
aI2
aI30
ag3
aa(lp1130
I424
aI28
aI31
ag3
aa(lp1131
I424
aI14
aI32
ag3
aa(lp1132
I424
aI9
aI42
ag3
aa(lp1133
I424
aI10
aI47
ag3
aa(lp1134
I424
aI22
aI59
ag1037
aa(lp1135
I424
aI3
aI64
ag3
aa(lp1136
I425
aI40
aI4
ag3
aa(lp1137
I425
aI45
aI5
ag3
aa(lp1138
I425
aI39
aI9
ag3
aa(lp1139
I425
aI7
aI28
ag3
aa(lp1140
I425
aI14
aI33
ag3
aa(lp1141
I425
aI36
aI34
ag3
aa(lp1142
I425
aI12
aI36
ag3
aa(lp1143
I425
aI9
aI43
ag3
aa(lp1144
I425
aI20
aI47
ag3
aa(lp1145
I425
aI10
aI48
ag3
aa(lp1146
I425
aI8
aI51
ag3
aa(lp1147
I425
aI1
aI58
ag3
aa(lp1148
I425
aI3
aI65
ag3
aa(lp1149
I425
aI4
aI75
ag3
aa(lp1150
I426
aI47
aI3
ag3
aa(lp1151
I426
aI40
aI5
ag3
aa(lp1152
I426
aI18
aI22
ag3
aa(lp1153
I426
aI25
aI24
ag3
aa(lp1154
I426
aI12
aI37
ag3
aa(lp1155
I426
aI10
aI49
ag3
aa(lp1156
I426
aI8
aI52
ag3
aa(lp1157
I426
aI6
aI53
ag3
aa(lp1158
I426
aI4
aI76
ag3
aa(lp1159
I427
aI11
aI43
ag3
aa(lp1160
I427
aI9
aI44
ag3
aa(lp1161
I427
aI20
aI48
ag3
aa(lp1162
I427
aI1
aI59
ag3
aa(lp1163
I429
aI57
aI15
ag3
aa(lp1164
I429
aI25
aI25
ag3
aa(lp1165
I429
aI9
aI45
ag3
aa(lp1166
I430
aI46
aI6
ag3
aa(lp1167
I430
aI52
aI8
ag3
aa(lp1168
I430
aI12
aI38
ag3
aa(lp1169
I430
aI8
aI53
ag3
aa(lp1170
I430
aI6
aI54
ag3
aa(lp1171
I430
aI1
aI60
ag3
aa(lp1172
I430
aI22
aI60
ag1037
aa(lp1173
I430
aI4
aI77
ag3
aa(lp1174
I431
aI49
aI5
ag3
aa(lp1175
I431
aI5
aI14
ag3
aa(lp1176
I431
aI2
aI31
ag3
aa(lp1177
I431
aI20
aI49
ag3
aa(lp1178
I431
aI1
aI61
ag3
aa(lp1179
I432
aI47
aI4
ag3
aa(lp1180
I432
aI49
aI6
ag3
aa(lp1181
I432
aI46
aI7
ag3
aa(lp1182
I432
aI54
aI7
ag3
aa(lp1183
I432
aI52
aI9
ag3
aa(lp1184
I432
aI33
aI11
ag3
aa(lp1185
I432
aI29
aI24
ag3
aa(lp1186
I432
aI2
aI32
ag3
aa(lp1187
I432
aI36
aI35
ag3
aa(lp1188
I432
aI12
aI39
ag3
aa(lp1189
I432
aI13
aI39
ag3
aa(lp1190
I432
aI9
aI46
ag3
aa(lp1191
I432
aI10
aI50
ag3
aa(lp1192
I432
aI20
aI50
ag3
aa(lp1193
I432
aI8
aI54
ag3
aa(lp1194
I432
aI6
aI55
ag3
aa(lp1195
I432
aI3
aI66
ag3
aa(lp1196
I433
aI47
aI5
ag3
aa(lp1197
I433
aI49
aI7
ag3
aa(lp1198
I433
aI52
aI10
ag3
aa(lp1199
I433
aI33
aI12
ag3
aa(lp1200
I433
aI29
aI25
ag3
aa(lp1201
I433
aI7
aI29
ag3
aa(lp1202
I433
aI2
aI33
ag3
aa(lp1203
I433
aI14
aI34
ag3
aa(lp1204
I433
aI15
aI37
ag3
aa(lp1205
I433
aI12
aI40
ag3
aa(lp1206
I433
aI13
aI40
ag3
aa(lp1207
I433
aI1
aI62
ag3
aa(lp1208
I433
aI4
aI78
ag3
aa(lp1209
I434
aI47
aI6
ag3
aa(lp1210
I434
aI54
aI8
ag3
aa(lp1211
I434
aI25
aI26
ag3
aa(lp1212
I434
aI2
aI34
ag3
aa(lp1213
I434
aI14
aI35
ag3
aa(lp1214
I434
aI12
aI41
ag3
aa(lp1215
I434
aI6
aI56
ag3
aa(lp1216
I434
aI4
aI79
ag3
aa(lp1217
I435
aI49
aI8
ag3
aa(lp1218
I435
aI9
aI47
ag3
aa(lp1219
I441
aI27
aI5
ag3
aa(lp1220
I441
aI42
aI16
ag3
aa(lp1221
I441
aI7
aI30
ag3
aa(lp1222
I441
aI11
aI44
ag3
aa(lp1223
I441
aI8
aI55
ag3
aa(lp1224
I441
aI22
aI61
ag1037
aa(lp1225
I441
aI3
aI67
ag3
aa(lp1226
I441
aI4
aI80
ag3
aa(lp1227
I442
aI42
aI17
ag1037
aa(lp1228
I442
aI16
aI20
ag3
aa(lp1229
I442
aI11
aI45
ag3
aa(lp1230
I442
aI6
aI57
ag3
aa(lp1231
I443
aI20
aI51
ag3
aa(lp1232
I443
aI6
aI58
ag3
aa(lp1233
I443
aI3
aI68
ag3
aa(lp1234
I444
aI50
aI8
ag3
aa(lp1235
I444
aI51
aI13
ag3
aa(lp1236
I444
aI16
aI21
ag3
aa(lp1237
I444
aI7
aI31
ag3
aa(lp1238
I444
aI28
aI32
ag3
aa(lp1239
I444
aI14
aI36
ag3
aa(lp1240
I444
aI36
aI36
ag3
aa(lp1241
I444
aI13
aI41
ag3
aa(lp1242
I444
aI12
aI42
ag3
aa(lp1243
I444
aI11
aI46
ag3
aa(lp1244
I444
aI20
aI52
ag3
aa(lp1245
I444
aI6
aI59
ag3
aa(lp1246
I444
aI22
aI62
ag1037
aa(lp1247
I444
aI3
aI69
ag3
aa(lp1248
I444
aI4
aI81
ag3
aa(lp1249
I445
aI55
aI5
ag3
aa(lp1250
I445
aI35
aI6
ag3
aa(lp1251
I445
aI46
aI8
ag3
aa(lp1252
I445
aI16
aI22
ag3
aa(lp1253
I445
aI25
aI27
ag3
aa(lp1254
I445
aI7
aI32
ag3
aa(lp1255
I445
aI28
aI33
ag3
aa(lp1256
I445
aI2
aI35
ag3
aa(lp1257
I445
aI12
aI43
ag3
aa(lp1258
I445
aI9
aI48
ag3
aa(lp1259
I445
aI20
aI53
ag3
aa(lp1260
I445
aI8
aI56
ag3
aa(lp1261
I445
aI22
aI63
ag1037
aa(lp1262
I445
aI3
aI70
ag3
aa(lp1263
I446
aI35
aI7
ag3
aa(lp1264
I446
aI18
aI23
ag3
aa(lp1265
I446
aI29
aI26
ag3
aa(lp1266
I446
aI6
aI60
ag3
aa(lp1267
I450
aI6
aI61
ag3
aa(lp1268
I451
aI41
aI16
ag3
aa(lp1269
I451
aI18
aI24
ag3
aa(lp1270
I451
aI14
aI37
ag3
aa(lp1271
I451
aI13
aI42
ag3
aa(lp1272
I451
aI20
aI54
ag3
aa(lp1273
I451
aI3
aI71
ag3
aa(lp1274
I452
aI27
aI6
ag3
aa(lp1275
I452
aI54
aI9
ag3
aa(lp1276
I452
aI33
aI13
ag3
aa(lp1277
I452
aI37
aI21
ag3
aa(lp1278
I452
aI7
aI33
ag3
aa(lp1279
I452
aI28
aI34
ag3
aa(lp1280
I452
aI36
aI37
ag3
aa(lp1281
I452
aI14
aI38
ag3
aa(lp1282
I452
aI13
aI43
ag3
aa(lp1283
I452
aI12
aI44
ag3
aa(lp1284
I452
aI8
aI57
ag3
aa(lp1285
I452
aI22
aI64
ag1037
aa(lp1286
I452
aI3
aI72
ag3
aa(lp1287
I453
aI54
aI10
ag3
aa(lp1288
I453
aI52
aI11
ag3
aa(lp1289
I453
aI33
aI14
ag3
aa(lp1290
I453
aI43
aI14
ag3
aa(lp1291
I453
aI5
aI15
ag3
aa(lp1292
I453
aI12
aI45
ag3
aa(lp1293
I453
aI20
aI55
ag3
aa(lp1294
I453
aI8
aI58
ag3
aa(lp1295
I453
aI3
aI73
ag3
aa(lp1296
I457
aI40
aI6
ag3
aa(lp1297
I457
aI27
aI7
ag3
aa(lp1298
I457
aI5
aI16
ag3
aa(lp1299
I457
aI57
aI16
ag3
aa(lp1300
I457
aI42
aI18
ag1037
aa(lp1301
I457
aI28
aI35
ag3
aa(lp1302
I457
aI15
aI38
ag3
aa(lp1303
I457
aI36
aI38
ag3
aa(lp1304
I457
aI14
aI39
ag3
aa(lp1305
I457
aI12
aI46
ag3
aa(lp1306
I457
aI1
aI63
ag3
aa(lp1307
I457
aI3
aI74
ag3
aa(lp1308
I458
aI30
aI1
ag3
aa(lp1309
I458
aI24
aI7
ag3
aa(lp1310
I458
aI42
aI19
ag1037
aa(lp1311
I458
aI18
aI25
ag3
aa(lp1312
I458
aI2
aI36
ag3
aa(lp1313
I458
aI14
aI40
ag3
aa(lp1314
I458
aI8
aI59
ag3
aa(lp1315
I458
aI6
aI62
ag3
aa(lp1316
I458
aI22
aI65
ag1037
aa(lp1317
I459
aI36
aI39
ag3
aa(lp1318
I459
aI1
aI64
ag3
aa(lp1319
I460
aI55
aI6
ag3
aa(lp1320
I460
aI33
aI15
ag3
aa(lp1321
I460
aI43
aI15
ag3
aa(lp1322
I460
aI5
aI17
ag3
aa(lp1323
I460
aI18
aI26
ag3
aa(lp1324
I460
aI7
aI34
ag3
aa(lp1325
I460
aI2
aI37
ag3
aa(lp1326
I460
aI9
aI49
ag3
aa(lp1327
I460
aI8
aI60
ag3
aa(lp1328
I460
aI6
aI63
ag3
aa(lp1329
I461
aI40
aI7
ag3
aa(lp1330
I461
aI50
aI9
ag3
aa(lp1331
I461
aI43
aI16
ag3
aa(lp1332
I461
aI5
aI18
ag3
aa(lp1333
I461
aI16
aI23
ag3
aa(lp1334
I461
aI25
aI28
ag3
aa(lp1335
I461
aI2
aI38
ag3
aa(lp1336
I461
aI15
aI39
ag3
aa(lp1337
I461
aI13
aI44
ag3
aa(lp1338
I461
aI12
aI47
ag3
aa(lp1339
I461
aI9
aI50
ag3
aa(lp1340
I461
aI10
aI51
ag3
aa(lp1341
I461
aI3
aI75
ag3
aa(lp1342
I463
aI19
aI6
ag3
aa(lp1343
I463
aI1
aI65
ag3
aa(lp1344
I464
aI55
aI7
ag3
aa(lp1345
I464
aI39
aI10
ag3
aa(lp1346
I464
aI54
aI11
ag3
aa(lp1347
I464
aI5
aI19
ag3
aa(lp1348
I464
aI11
aI47
ag3
aa(lp1349
I464
aI12
aI48
ag3
aa(lp1350
I464
aI20
aI56
ag3
aa(lp1351
I464
aI3
aI76
ag3
aa(lp1352
I465
aI38
aI5
ag3
aa(lp1353
I465
aI27
aI8
ag3
aa(lp1354
I465
aI31
aI9
ag3
aa(lp1355
I465
aI50
aI10
ag3
aa(lp1356
I465
aI53
aI10
ag3
aa(lp1357
I465
aI39
aI11
ag3
aa(lp1358
I465
aI29
aI27
ag3
aa(lp1359
I465
aI2
aI39
ag3
aa(lp1360
I465
aI10
aI52
ag3
aa(lp1361
I465
aI20
aI57
ag3
aa(lp1362
I465
aI8
aI61
ag3
aa(lp1363
I465
aI3
aI77
ag3
aa(lp1364
I466
aI31
aI10
ag3
aa(lp1365
I466
aI41
aI17
ag3
aa(lp1366
I466
aI57
aI17
ag3
aa(lp1367
I466
aI8
aI62
ag3
aa(lp1368
I467
aI18
aI27
ag3
aa(lp1369
I467
aI20
aI58
ag3
aa(lp1370
I467
aI1
aI66
ag3
aa(lp1371
I467
aI3
aI78
ag3
aa(lp1372
I468
aI27
aI9
ag3
aa(lp1373
I468
aI46
aI9
ag3
aa(lp1374
I468
aI16
aI24
ag3
aa(lp1375
I468
aI28
aI36
ag3
aa(lp1376
I468
aI14
aI41
ag3
aa(lp1377
I468
aI11
aI48
ag3
aa(lp1378
I468
aI12
aI49
ag3
aa(lp1379
I468
aI9
aI51
ag3
aa(lp1380
I468
aI22
aI66
ag1037
aa(lp1381
I468
aI3
aI79
ag3
aa(lp1382
I469
aI27
aI10
ag3
aa(lp1383
I469
aI46
aI10
ag3
aa(lp1384
I469
aI33
aI16
ag3
aa(lp1385
I469
aI5
aI20
ag3
aa(lp1386
I469
aI42
aI20
ag1037
aa(lp1387
I469
aI7
aI35
ag3
aa(lp1388
I469
aI28
aI37
ag3
aa(lp1389
I469
aI2
aI40
ag3
aa(lp1390
I469
aI36
aI40
ag3
aa(lp1391
I469
aI14
aI42
ag3
aa(lp1392
I469
aI20
aI59
ag3
aa(lp1393
I469
aI8
aI63
ag3
aa(lp1394
I469
aI3
aI80
ag3
aa(lp1395
I470
aI46
aI11
ag3
aa(lp1396
I470
aI18
aI28
ag3
aa(lp1397
I470
aI10
aI53
ag3
aa(lp1398
I470
aI6
aI64
ag3
aa(lp1399
I470
aI8
aI64
ag3
aa(lp1400
I470
aI1
aI67
ag3
aa(lp1401
I470
aI22
aI67
ag1037
aa(lp1402
I471
aI43
aI17
ag3
aa(lp1403
I471
aI18
aI29
ag3
aa(lp1404
I471
aI14
aI43
ag3
aa(lp1405
I471
aI12
aI50
ag3
aa(lp1406
I471
aI20
aI60
ag3
aa(lp1407
I471
aI1
aI68
ag3
aa(lp1408
I471
aI3
aI81
ag3
aa(lp1409
I472
aI27
aI11
ag3
aa(lp1410
I472
aI31
aI11
ag3
aa(lp1411
I472
aI39
aI12
ag3
aa(lp1412
I472
aI46
aI12
ag3
aa(lp1413
I472
aI52
aI12
ag3
aa(lp1414
I472
aI16
aI25
ag3
aa(lp1415
I472
aI28
aI38
ag3
aa(lp1416
I472
aI2
aI41
ag3
aa(lp1417
I472
aI14
aI44
ag3
aa(lp1418
I472
aI11
aI49
ag3
aa(lp1419
I472
aI22
aI68
ag1037
aa(lp1420
I472
aI3
aI82
ag3
aa(lp1421
I473
aI48
aI0
ag3
aa(lp1422
I473
aI31
aI12
ag3
aa(lp1423
I473
aI52
aI13
ag3
aa(lp1424
I473
aI28
aI39
ag3
aa(lp1425
I473
aI2
aI42
ag3
aa(lp1426
I473
aI13
aI45
ag3
aa(lp1427
I473
aI14
aI45
ag3
aa(lp1428
I473
aI11
aI50
ag3
aa(lp1429
I473
aI12
aI51
ag3
aa(lp1430
I473
aI9
aI52
ag3
aa(lp1431
I473
aI10
aI54
ag3
aa(lp1432
I473
aI20
aI61
ag3
aa(lp1433
I473
aI8
aI65
ag3
aa(lp1434
I473
aI1
aI69
ag3
aa(lp1435
I473
aI22
aI69
ag1037
aa(lp1436
I473
aI3
aI83
ag3
aa(lp1437
I474
aI41
aI18
ag3
aa(lp1438
I474
aI6
aI65
ag3
aa(lp1439
I474
aI8
aI66
ag3
aa(lp1440
I475
aI29
aI28
ag3
aa(lp1441
I475
aI18
aI30
ag3
aa(lp1442
I475
aI14
aI46
ag3
aa(lp1443
I475
aI9
aI53
ag3
aa(lp1444
I475
aI6
aI66
ag3
aa(lp1445
I476
aI48
aI1
ag3
aa(lp1446
I476
aI27
aI12
ag3
aa(lp1447
I476
aI51
aI14
ag3
aa(lp1448
I476
aI33
aI17
ag3
aa(lp1449
I476
aI43
aI18
ag3
aa(lp1450
I476
aI29
aI29
ag3
aa(lp1451
I476
aI7
aI36
ag3
aa(lp1452
I476
aI15
aI40
ag3
aa(lp1453
I476
aI28
aI40
ag3
aa(lp1454
I476
aI13
aI46
ag3
aa(lp1455
I476
aI14
aI47
ag3
aa(lp1456
I476
aI11
aI51
ag3
aa(lp1457
I476
aI6
aI67
ag3
aa(lp1458
I476
aI1
aI70
ag3
aa(lp1459
I476
aI22
aI70
ag1037
aa(lp1460
I476
aI3
aI84
ag3
aa(lp1461
I477
aI48
aI2
ag3
aa(lp1462
I477
aI27
aI13
ag3
aa(lp1463
I477
aI7
aI37
ag3
aa(lp1464
I477
aI2
aI43
ag3
aa(lp1465
I477
aI13
aI47
ag3
aa(lp1466
I477
aI11
aI52
ag3
aa(lp1467
I477
aI10
aI55
ag3
aa(lp1468
I477
aI20
aI62
ag3
aa(lp1469
I477
aI8
aI67
ag3
aa(lp1470
I477
aI1
aI71
ag3
aa(lp1471
I482
aI12
aI52
ag3
aa(lp1472
I483
aI1
aI72
ag3
aa(lp1473
I485
aI21
aI0
ag3
aa(lp1474
I485
aI27
aI14
ag3
aa(lp1475
I485
aI33
aI18
ag3
aa(lp1476
I485
aI5
aI21
ag3
aa(lp1477
I485
aI16
aI26
ag3
aa(lp1478
I485
aI7
aI38
ag3
aa(lp1479
I485
aI28
aI41
ag3
aa(lp1480
I485
aI14
aI48
ag3
aa(lp1481
I485
aI12
aI53
ag3
aa(lp1482
I485
aI20
aI63
ag3
aa(lp1483
I485
aI8
aI68
ag3
aa(lp1484
I485
aI1
aI73
ag3
aa(lp1485
I486
aI19
aI7
ag3
aa(lp1486
I486
aI47
aI7
ag3
aa(lp1487
I486
aI53
aI11
ag3
aa(lp1488
I486
aI57
aI18
ag3
aa(lp1489
I486
aI5
aI22
ag3
aa(lp1490
I486
aI25
aI29
ag3
aa(lp1491
I486
aI2
aI44
ag3
aa(lp1492
I486
aI12
aI54
ag3
aa(lp1493
I486
aI6
aI68
ag3
aa(lp1494
I486
aI8
aI69
ag3
aa(lp1495
I486
aI3
aI85
ag3
aa(lp1496
I491
aI19
aI8
ag3
aa(lp1497
I491
aI2
aI45
ag3
aa(lp1498
I491
aI11
aI53
ag3
aa(lp1499
I491
aI12
aI55
ag3
aa(lp1500
I491
aI10
aI56
ag3
aa(lp1501
I491
aI1
aI74
ag3
aa(lp1502
I492
aI38
aI6
ag3
aa(lp1503
I492
aI40
aI8
ag3
aa(lp1504
I492
aI19
aI9
ag3
aa(lp1505
I492
aI54
aI12
ag3
aa(lp1506
I492
aI7
aI39
ag3
aa(lp1507
I492
aI36
aI41
ag3
aa(lp1508
I492
aI9
aI54
ag3
aa(lp1509
I492
aI12
aI56
ag3
aa(lp1510
I492
aI8
aI70
ag3
aa(lp1511
I493
aI32
aI0
ag3
aa(lp1512
I493
aI53
aI12
ag3
aa(lp1513
I493
aI54
aI13
ag3
aa(lp1514
I493
aI27
aI15
ag3
aa(lp1515
I493
aI43
aI19
ag3
aa(lp1516
I493
aI28
aI42
ag3
aa(lp1517
I493
aI2
aI46
ag3
aa(lp1518
I493
aI10
aI57
ag3
aa(lp1519
I493
aI1
aI75
ag3
aa(lp1520
I494
aI24
aI8
ag3
aa(lp1521
I494
aI53
aI13
ag3
aa(lp1522
I494
aI10
aI58
ag3
aa(lp1523
I494
aI8
aI71
ag3
aa(lp1524
I495
aI43
aI20
ag3
aa(lp1525
I495
aI18
aI31
ag3
aa(lp1526
I495
aI14
aI49
ag3
aa(lp1527
I495
aI1
aI76
ag3
aa(lp1528
I495
aI3
aI86
ag3
aa(lp1529
I496
aI27
aI16
ag3
aa(lp1530
I496
aI16
aI27
ag3
aa(lp1531
I496
aI18
aI32
ag3
aa(lp1532
I496
aI28
aI43
ag3
aa(lp1533
I496
aI14
aI50
ag3
aa(lp1534
I496
aI11
aI54
ag3
aa(lp1535
I496
aI9
aI55
ag3
aa(lp1536
I496
aI12
aI57
ag3
aa(lp1537
I496
aI3
aI87
ag3
aa(lp1538
I497
aI24
aI9
ag3
aa(lp1539
I497
aI27
aI17
ag3
aa(lp1540
I497
aI57
aI19
ag3
aa(lp1541
I497
aI16
aI28
ag3
aa(lp1542
I497
aI7
aI40
ag3
aa(lp1543
I497
aI11
aI55
ag3
aa(lp1544
I497
aI10
aI59
ag3
aa(lp1545
I497
aI20
aI64
ag3
aa(lp1546
I497
aI8
aI72
ag3
aa(lp1547
I497
aI3
aI88
ag3
aa(lp1548
I498
aI24
aI10
ag3
aa(lp1549
I498
aI5
aI23
ag3
aa(lp1550
I498
aI18
aI33
ag3
aa(lp1551
I498
aI1
aI77
ag3
aa(lp1552
I499
aI3
aI89
ag3
aa(lp1553
I500
aI27
aI18
ag3
aa(lp1554
I500
aI33
aI19
ag3
aa(lp1555
I500
aI16
aI29
ag3
aa(lp1556
I500
aI28
aI44
ag3
aa(lp1557
I500
aI14
aI51
ag3
aa(lp1558
I500
aI9
aI56
ag3
aa(lp1559
I500
aI11
aI56
ag3
aa(lp1560
I500
aI12
aI58
ag3
aa(lp1561
I500
aI10
aI60
ag3
aa(lp1562
I500
aI1
aI78
ag3
aa(lp1563
I500
aI3
aI90
ag3
aa(lp1564
I501
aI32
aI1
ag3
aa(lp1565
I501
aI51
aI15
ag3
aa(lp1566
I501
aI33
aI20
ag3
aa(lp1567
I501
aI25
aI30
ag3
aa(lp1568
I501
aI7
aI41
ag3
aa(lp1569
I501
aI2
aI47
ag3
aa(lp1570
I501
aI13
aI48
ag3
aa(lp1571
I501
aI14
aI52
ag3
aa(lp1572
I501
aI9
aI57
ag3
aa(lp1573
I501
aI8
aI73
ag3
aa(lp1574
I501
aI1
aI79
ag3
aa(lp1575
I501
aI3
aI91
ag3
aa(lp1576
I502
aI46
aI13
ag3
aa(lp1577
I502
aI18
aI34
ag3
aa(lp1578
I502
aI7
aI42
ag3
aa(lp1579
I502
aI14
aI53
ag3
aa(lp1580
I502
aI10
aI61
ag3
aa(lp1581
I505
aI55
aI8
ag3
aa(lp1582
I505
aI31
aI13
ag3
aa(lp1583
I505
aI5
aI24
ag3
aa(lp1584
I505
aI16
aI30
ag3
aa(lp1585
I505
aI7
aI43
ag3
aa(lp1586
I505
aI10
aI62
ag3
aa(lp1587
I505
aI20
aI65
ag3
aa(lp1588
I505
aI8
aI74
ag3
aa(lp1589
I505
aI1
aI80
ag3
aa(lp1590
I505
aI3
aI92
ag3
aa(lp1591
I506
aI18
aI35
ag3
aa(lp1592
I506
aI12
aI59
ag3
aa(lp1593
I506
aI10
aI63
ag3
aa(lp1594
I506
aI6
aI69
ag3
aa(lp1595
I506
aI1
aI81
ag3
aa(lp1596
I507
aI51
aI16
ag3
aa(lp1597
I507
aI43
aI21
ag3
aa(lp1598
I507
aI18
aI36
ag3
aa(lp1599
I507
aI14
aI54
ag3
aa(lp1600
I508
aI55
aI9
ag3
aa(lp1601
I508
aI46
aI14
ag3
aa(lp1602
I508
aI27
aI19
ag3
aa(lp1603
I508
aI41
aI19
ag3
aa(lp1604
I508
aI16
aI31
ag3
aa(lp1605
I508
aI2
aI48
ag3
aa(lp1606
I508
aI13
aI49
ag3
aa(lp1607
I508
aI14
aI55
ag3
aa(lp1608
I508
aI6
aI70
ag3
aa(lp1609
I508
aI3
aI93
ag3
aa(lp1610
I509
aI45
aI6
ag3
aa(lp1611
I509
aI42
aI21
ag1037
aa(lp1612
I509
aI37
aI22
ag3
aa(lp1613
I509
aI16
aI32
ag3
aa(lp1614
I509
aI18
aI37
ag3
aa(lp1615
I509
aI36
aI42
ag3
aa(lp1616
I509
aI7
aI44
ag3
aa(lp1617
I509
aI2
aI49
ag3
aa(lp1618
I509
aI13
aI50
ag3
aa(lp1619
I509
aI14
aI56
ag3
aa(lp1620
I509
aI12
aI60
ag3
aa(lp1621
I509
aI10
aI64
ag3
aa(lp1622
I509
aI20
aI66
ag3
aa(lp1623
I509
aI6
aI71
ag3
aa(lp1624
I509
aI8
aI75
ag3
aa(lp1625
I509
aI1
aI82
ag3
aa(lp1626
I509
aI3
aI94
ag3
aa(lp1627
I510
aI46
aI15
ag3
aa(lp1628
I510
aI41
aI20
ag3
aa(lp1629
I510
aI57
aI20
ag3
aa(lp1630
I510
aI13
aI51
ag3
aa(lp1631
I510
aI12
aI61
ag3
aa(lp1632
I510
aI6
aI72
ag3
aa(lp1633
I511
aI46
aI16
ag3
aa(lp1634
I511
aI10
aI65
ag3
aa(lp1635
I511
aI6
aI73
ag3
aa(lp1636
I511
aI8
aI76
ag3
aa(lp1637
I511
aI1
aI83
ag3
aa(lp1638
I511
aI3
aI95
ag3
aa(lp1639
I512
aI48
aI3
ag3
aa(lp1640
I512
aI46
aI17
ag3
aa(lp1641
I512
aI29
aI30
ag3
aa(lp1642
I512
aI28
aI45
ag3
aa(lp1643
I512
aI6
aI74
ag3
aa(lp1644
I512
aI3
aI96
ag3
aa(lp1645
I513
aI38
aI7
ag3
aa(lp1646
I513
aI16
aI33
ag3
aa(lp1647
I514
aI35
aI8
ag3
aa(lp1648
I514
aI25
aI31
ag3
aa(lp1649
I514
aI28
aI46
ag3
aa(lp1650
I514
aI6
aI75
ag3
aa(lp1651
I514
aI3
aI97
ag3
aa(lp1652
I515
aI52
aI14
ag3
aa(lp1653
I515
aI36
aI43
ag3
aa(lp1654
I515
aI11
aI57
ag3
aa(lp1655
I515
aI12
aI62
ag3
aa(lp1656
I516
aI21
aI1
ag3
aa(lp1657
I516
aI54
aI14
ag3
aa(lp1658
I516
aI37
aI23
ag3
aa(lp1659
I516
aI2
aI50
ag3
aa(lp1660
I516
aI9
aI58
ag3
aa(lp1661
I516
aI12
aI63
ag3
aa(lp1662
I516
aI20
aI67
ag3
aa(lp1663
I517
aI31
aI14
ag3
aa(lp1664
I517
aI54
aI15
ag3
aa(lp1665
I517
aI41
aI21
ag3
aa(lp1666
I517
aI43
aI22
ag3
aa(lp1667
I517
aI25
aI32
ag3
aa(lp1668
I517
aI15
aI41
ag3
aa(lp1669
I517
aI36
aI44
ag3
aa(lp1670
I517
aI2
aI51
ag3
aa(lp1671
I517
aI9
aI59
ag3
aa(lp1672
I517
aI12
aI64
ag3
aa(lp1673
I517
aI10
aI66
ag3
aa(lp1674
I517
aI8
aI77
ag3
aa(lp1675
I517
aI3
aI98
ag3
aa(lp1676
I518
aI2
aI52
ag3
aa(lp1677
I518
aI12
aI65
ag3
aa(lp1678
I518
aI10
aI67
ag3
aa(lp1679
I519
aI19
aI10
ag3
aa(lp1680
I519
aI24
aI11
ag3
aa(lp1681
I519
aI54
aI16
ag3
aa(lp1682
I519
aI15
aI42
ag3
aa(lp1683
I519
aI7
aI45
ag3
aa(lp1684
I519
aI9
aI60
ag3
aa(lp1685
I519
aI1
aI84
ag3
aa(lp1686
I520
aI21
aI2
ag3
aa(lp1687
I520
aI38
aI8
ag3
aa(lp1688
I520
aI40
aI9
ag3
aa(lp1689
I520
aI53
aI14
ag3
aa(lp1690
I520
aI29
aI31
ag3
aa(lp1691
I520
aI7
aI46
ag3
aa(lp1692
I520
aI13
aI52
ag3
aa(lp1693
I520
aI2
aI53
ag3
aa(lp1694
I520
aI9
aI61
ag3
aa(lp1695
I520
aI12
aI66
ag3
aa(lp1696
I521
aI38
aI9
ag3
aa(lp1697
I521
aI40
aI10
ag3
aa(lp1698
I521
aI50
aI11
ag3
aa(lp1699
I521
aI54
aI17
ag3
aa(lp1700
I521
aI7
aI47
ag3
aa(lp1701
I521
aI13
aI53
ag3
aa(lp1702
I521
aI2
aI54
ag3
aa(lp1703
I521
aI12
aI67
ag3
aa(lp1704
I521
aI8
aI78
ag3
aa(lp1705
I521
aI1
aI85
ag3
aa(lp1706
I522
aI57
aI21
ag3
aa(lp1707
I523
aI46
aI18
ag3
aa(lp1708
I523
aI1
aI86
ag3
aa(lp1709
I523
aI3
aI99
ag3
aa(lp1710
I524
aI48
aI4
ag3
aa(lp1711
I524
aI43
aI23
ag3
aa(lp1712
I524
aI36
aI45
ag3
aa(lp1713
I524
aI28
aI47
ag3
aa(lp1714
I524
aI7
aI48
ag3
aa(lp1715
I524
aI14
aI57
ag3
aa(lp1716
I524
aI3
aI100
ag3
aa(lp1717
I525
aI21
aI3
ag3
aa(lp1718
I525
aI19
aI11
ag3
aa(lp1719
I525
aI46
aI19
ag3
aa(lp1720
I525
aI27
aI20
ag3
aa(lp1721
I525
aI41
aI22
ag3
aa(lp1722
I525
aI29
aI32
ag3
aa(lp1723
I525
aI15
aI43
ag3
aa(lp1724
I525
aI14
aI58
ag3
aa(lp1725
I525
aI9
aI62
ag3
aa(lp1726
I525
aI10
aI68
ag3
aa(lp1727
I525
aI20
aI68
ag3
aa(lp1728
I525
aI8
aI79
ag3
aa(lp1729
I525
aI1
aI87
ag3
aa(lp1730
I525
aI3
aI101
ag3
aa(lp1731
I526
aI18
aI38
ag3
aa(lp1732
I526
aI10
aI69
ag3
aa(lp1733
I527
aI46
aI20
ag3
aa(lp1734
I527
aI41
aI23
ag3
aa(lp1735
I527
aI36
aI46
ag3
aa(lp1736
I527
aI3
aI102
ag3
aa(lp1737
I528
aI27
aI21
ag3
aa(lp1738
I528
aI46
aI21
ag3
aa(lp1739
I528
aI43
aI24
ag3
aa(lp1740
I528
aI28
aI48
ag3
aa(lp1741
I528
aI11
aI58
ag3
aa(lp1742
I528
aI14
aI59
ag3
aa(lp1743
I528
aI9
aI63
ag3
aa(lp1744
I528
aI6
aI76
ag3
aa(lp1745
I528
aI3
aI103
ag3
aa(lp1746
I529
aI27
aI22
ag3
aa(lp1747
I529
aI46
aI22
ag3
aa(lp1748
I529
aI28
aI49
ag3
aa(lp1749
I529
aI2
aI55
ag3
aa(lp1750
I529
aI11
aI59
ag3
aa(lp1751
I529
aI14
aI60
ag3
aa(lp1752
I529
aI10
aI70
ag3
aa(lp1753
I529
aI6
aI77
ag3
aa(lp1754
I529
aI8
aI80
ag3
aa(lp1755
I529
aI3
aI104
ag3
aa(lp1756
I530
aI46
aI23
ag3
aa(lp1757
I530
aI41
aI24
ag3
aa(lp1758
I530
aI18
aI39
ag3
aa(lp1759
I530
aI8
aI81
ag3
aa(lp1760
I531
aI3
aI105
ag3
aa(lp1761
I532
aI48
aI5
ag3
aa(lp1762
I532
aI27
aI23
ag3
aa(lp1763
I532
aI43
aI25
ag3
aa(lp1764
I532
aI28
aI50
ag3
aa(lp1765
I532
aI13
aI54
ag3
aa(lp1766
I532
aI2
aI56
ag3
aa(lp1767
I532
aI11
aI60
ag3
aa(lp1768
I532
aI14
aI61
ag3
aa(lp1769
I532
aI3
aI106
ag3
aa(lp1770
I533
aI30
aI2
ag3
aa(lp1771
I533
aI48
aI6
ag3
aa(lp1772
I533
aI19
aI12
ag3
aa(lp1773
I533
aI31
aI15
ag3
aa(lp1774
I533
aI33
aI21
ag3
aa(lp1775
I533
aI16
aI34
ag3
aa(lp1776
I533
aI28
aI51
ag3
aa(lp1777
I533
aI13
aI55
ag3
aa(lp1778
I533
aI2
aI57
ag3
aa(lp1779
I533
aI11
aI61
ag3
aa(lp1780
I533
aI14
aI62
ag3
aa(lp1781
I533
aI9
aI64
ag3
aa(lp1782
I533
aI10
aI71
ag3
aa(lp1783
I533
aI8
aI82
ag3
aa(lp1784
I534
aI18
aI40
ag3
aa(lp1785
I534
aI13
aI56
ag3
aa(lp1786
I534
aI11
aI62
ag3
aa(lp1787
I534
aI6
aI78
ag3
aa(lp1788
I534
aI8
aI83
ag3
aa(lp1789
I535
aI46
aI24
ag3
aa(lp1790
I535
aI18
aI41
ag3
aa(lp1791
I535
aI14
aI63
ag3
aa(lp1792
I535
aI8
aI84
ag3
aa(lp1793
I535
aI3
aI107
ag3
aa(lp1794
I536
aI50
aI12
ag3
aa(lp1795
I536
aI27
aI24
ag3
aa(lp1796
I536
aI43
aI26
ag3
aa(lp1797
I536
aI16
aI35
ag3
aa(lp1798
I536
aI2
aI58
ag3
aa(lp1799
I536
aI9
aI65
ag3
aa(lp1800
I536
aI3
aI108
ag3
aa(lp1801
I537
aI57
aI22
ag3
aa(lp1802
I537
aI46
aI25
ag3
aa(lp1803
I537
aI43
aI27
ag3
aa(lp1804
I537
aI15
aI44
ag3
aa(lp1805
I537
aI2
aI59
ag3
aa(lp1806
I537
aI12
aI68
ag3
aa(lp1807
I537
aI10
aI72
ag3
aa(lp1808
I537
aI8
aI85
ag3
aa(lp1809
I537
aI3
aI109
ag3
aa(lp1810
I541
aI55
aI10
ag3
aa(lp1811
I541
aI40
aI11
ag3
aa(lp1812
I541
aI57
aI23
ag3
aa(lp1813
I541
aI10
aI73
ag3
aa(lp1814
I541
aI6
aI79
ag3
aa(lp1815
I541
aI3
aI110
ag3
aa(lp1816
I542
aI35
aI9
ag3
aa(lp1817
I542
aI10
aI74
ag3
aa(lp1818
I542
aI3
aI111
ag3
aa(lp1819
I547
aI8
aI86
ag3
aa(lp1820
I547
aI1
aI88
ag3
aa(lp1821
I548
aI38
aI10
ag3
aa(lp1822
I548
aI55
aI11
ag3
aa(lp1823
I548
aI43
aI28
ag3
aa(lp1824
I548
aI2
aI60
ag3
aa(lp1825
I548
aI9
aI66
ag3
aa(lp1826
I548
aI12
aI69
ag3
aa(lp1827
I548
aI3
aI112
ag3
aa(lp1828
I549
aI30
aI3
ag3
aa(lp1829
I549
aI19
aI13
ag3
aa(lp1830
I549
aI39
aI13
ag3
aa(lp1831
I549
aI57
aI24
ag3
aa(lp1832
I549
aI43
aI29
ag3
aa(lp1833
I549
aI2
aI61
ag3
aa(lp1834
I549
aI9
aI67
ag3
aa(lp1835
I549
aI12
aI70
ag3
aa(lp1836
I549
aI1
aI89
ag3
aa(lp1837
I549
aI3
aI113
ag3
aa(lp1838
I550
aI48
aI7
ag3
aa(lp1839
I550
aI8
aI87
ag3
aa(lp1840
I551
aI57
aI25
ag3
aa(lp1841
I551
aI46
aI26
ag3
aa(lp1842
I551
aI18
aI42
ag3
aa(lp1843
I551
aI1
aI90
ag3
aa(lp1844
I551
aI3
aI114
ag3
aa(lp1845
I552
aI48
aI8
ag3
aa(lp1846
I552
aI52
aI15
ag3
aa(lp1847
I552
aI16
aI36
ag3
aa(lp1848
I552
aI2
aI62
ag3
aa(lp1849
I552
aI11
aI63
ag3
aa(lp1850
I552
aI14
aI64
ag3
aa(lp1851
I552
aI3
aI115
ag3
aa(lp1852
I553
aI32
aI2
ag3
aa(lp1853
I553
aI48
aI9
ag3
aa(lp1854
I553
aI52
aI16
ag3
aa(lp1855
I553
aI36
aI47
ag3
aa(lp1856
I553
aI7
aI49
ag3
aa(lp1857
I553
aI2
aI63
ag3
aa(lp1858
I553
aI11
aI64
ag3
aa(lp1859
I553
aI8
aI88
ag3
aa(lp1860
I553
aI3
aI116
ag3
aa(lp1861
I554
aI24
aI12
ag3
aa(lp1862
I554
aI51
aI17
ag3
aa(lp1863
I554
aI25
aI33
ag3
aa(lp1864
I554
aI18
aI43
ag3
aa(lp1865
I554
aI9
aI68
ag3
aa(lp1866
I554
aI6
aI80
ag3
aa(lp1867
I554
aI8
aI89
ag3
aa(lp1868
I554
aI1
aI91
ag3
aa(lp1869
I555
aI46
aI27
ag3
aa(lp1870
I557
aI57
aI26
ag3
aa(lp1871
I557
aI14
aI65
ag3
aa(lp1872
I557
aI1
aI92
ag3
aa(lp1873
I563
aI18
aI44
ag3
aa(lp1874
I564
aI21
aI4
ag3
aa(lp1875
I564
aI50
aI13
ag3
aa(lp1876
I564
aI46
aI28
ag3
aa(lp1877
I564
aI43
aI30
ag3
aa(lp1878
I564
aI16
aI37
ag3
aa(lp1879
I564
aI14
aI66
ag3
aa(lp1880
I564
aI9
aI69
ag3
aa(lp1881
I564
aI12
aI71
ag3
aa(lp1882
I564
aI6
aI81
ag3
aa(lp1883
I565
aI46
aI29
ag3
aa(lp1884
I565
aI16
aI38
ag3
aa(lp1885
I565
aI18
aI45
ag3
aa(lp1886
I565
aI36
aI48
ag3
aa(lp1887
I565
aI7
aI50
ag3
aa(lp1888
I565
aI2
aI64
ag3
aa(lp1889
I565
aI14
aI67
ag3
aa(lp1890
I565
aI9
aI70
ag3
aa(lp1891
I565
aI12
aI72
ag3
aa(lp1892
I565
aI10
aI75
ag3
aa(lp1893
I565
aI8
aI90
ag3
aa(lp1894
I565
aI1
aI93
ag3
aa(lp1895
I565
aI3
aI117
ag3
aa(lp1896
I566
aI9
aI71
ag3
aa(lp1897
I566
aI8
aI91
ag3
aa(lp1898
I581
aI48
aI10
ag3
aa(lp1899
I581
aI57
aI27
ag3
aa(lp1900
I581
aI10
aI76
ag3
aa(lp1901
I587
aI48
aI11
ag3
aa(lp1902
I587
aI43
aI31
ag3
aa(lp1903
I587
aI18
aI46
ag3
aa(lp1904
I587
aI3
aI118
ag3
aa(lp1905
I588
aI46
aI30
ag3
aa(lp1906
I588
aI28
aI52
ag1037
aa(lp1907
I588
aI11
aI65
ag3
aa(lp1908
I588
aI14
aI68
ag3
aa(lp1909
I588
aI9
aI72
ag3
aa(lp1910
I588
aI8
aI92
ag3
aa(lp1911
I588
aI1
aI94
ag3
aa(lp1912
I588
aI3
aI119
ag3
aa(lp1913
I589
aI35
aI10
ag3
aa(lp1914
I589
aI46
aI31
ag3
aa(lp1915
I589
aI16
aI39
ag3
aa(lp1916
I589
aI18
aI47
ag3
aa(lp1917
I589
aI7
aI51
ag3
aa(lp1918
I589
aI2
aI65
ag3
aa(lp1919
I589
aI11
aI66
ag3
aa(lp1920
I589
aI10
aI77
ag3
aa(lp1921
I589
aI8
aI93
ag3
aa(lp1922
I589
aI1
aI95
ag3
aa(lp1923
I589
aI3
aI120
ag3
aa(lp1924
I590
aI35
aI11
ag3
aa(lp1925
I590
aI24
aI13
ag3
aa(lp1926
I590
aI57
aI28
ag3
aa(lp1927
I590
aI7
aI52
ag3
aa(lp1928
I590
aI10
aI78
ag3
aa(lp1929
I590
aI6
aI82
ag3
aa(lp1930
I590
aI8
aI94
ag3
aa(lp1931
I603
aI51
aI18
ag3
aa(lp1932
I603
aI12
aI73
ag3
aa(lp1933
I603
aI10
aI79
ag3
aa(lp1934
I603
aI1
aI96
ag3
aa(lp1935
I604
aI30
aI4
ag3
aa(lp1936
I604
aI53
aI15
ag3
aa(lp1937
I604
aI54
aI18
ag3
aa(lp1938
I604
aI5
aI25
ag3
aa(lp1939
I605
aI54
aI19
ag3
aa(lp1940
I609
aI30
aI5
ag3
aa(lp1941
I609
aI40
aI12
ag3
aa(lp1942
I609
aI37
aI24
ag3
aa(lp1943
I609
aI41
aI25
ag3
aa(lp1944
I609
aI46
aI32
ag3
aa(lp1945
I609
aI36
aI49
ag3
aa(lp1946
I609
aI7
aI53
ag3
aa(lp1947
I609
aI2
aI66
ag3
aa(lp1948
I609
aI11
aI67
ag3
aa(lp1949
I609
aI14
aI69
ag3
aa(lp1950
I609
aI1
aI97
ag3
aa(lp1951
I609
aI3
aI121
ag3
aa(lp1952
I610
aI46
aI33
ag3
aa(lp1953
I610
aI18
aI48
ag3
aa(lp1954
I610
aI6
aI83
ag3
aa(lp1955
I610
aI8
aI95
ag3
aa(lp1956
I610
aI1
aI98
ag3
aa(lp1957
I611
aI5
aI26
ag3
aa(lp1958
I611
aI43
aI32
ag3
aa(lp1959
I611
aI18
aI49
ag3
aa(lp1960
I611
aI3
aI122
ag3
aa(lp1961
I612
aI46
aI34
ag3
aa(lp1962
I612
aI14
aI70
ag3
aa(lp1963
I612
aI9
aI73
ag3
aa(lp1964
I612
aI6
aI84
ag3
aa(lp1965
I612
aI3
aI123
ag3
aa(lp1966
I613
aI43
aI33
ag3
aa(lp1967
I613
aI46
aI35
ag3
aa(lp1968
I613
aI36
aI50
ag3
aa(lp1969
I613
aI2
aI67
ag3
aa(lp1970
I613
aI14
aI71
ag3
aa(lp1971
I613
aI9
aI74
ag3
aa(lp1972
I613
aI8
aI96
ag3
aa(lp1973
I614
aI30
aI6
ag3
aa(lp1974
I614
aI24
aI14
ag3
aa(lp1975
I614
aI57
aI29
ag3
aa(lp1976
I614
aI16
aI40
ag3
aa(lp1977
I614
aI2
aI68
ag3
aa(lp1978
I614
aI6
aI85
ag3
aa(lp1979
I614
aI8
aI97
ag3
aa(lp1980
I615
aI5
aI27
ag3
aa(lp1981
I615
aI57
aI30
ag3
aa(lp1982
I615
aI46
aI36
ag3
aa(lp1983
I615
aI36
aI51
ag3
aa(lp1984
I615
aI14
aI72
ag3
aa(lp1985
I615
aI12
aI74
ag3
aa(lp1986
I615
aI9
aI75
ag3
aa(lp1987
I615
aI1
aI99
ag3
aa(lp1988
I616
aI43
aI34
ag3
aa(lp1989
I616
aI46
aI37
ag3
aa(lp1990
I616
aI36
aI52
ag3
aa(lp1991
I616
aI28
aI53
ag1037
aa(lp1992
I616
aI7
aI54
ag3
aa(lp1993
I616
aI2
aI69
ag3
aa(lp1994
I616
aI14
aI73
ag3
aa(lp1995
I616
aI12
aI75
ag3
aa(lp1996
I616
aI6
aI86
ag3
aa(lp1997
I616
aI3
aI124
ag3
aa(lp1998
I617
aI48
aI12
ag3
aa(lp1999
I617
aI19
aI14
ag3
aa(lp2000
I617
aI25
aI34
ag3
aa(lp2001
I617
aI16
aI41
ag3
aa(lp2002
I617
aI7
aI55
ag3
aa(lp2003
I617
aI2
aI70
ag3
aa(lp2004
I617
aI14
aI74
ag3
aa(lp2005
I617
aI10
aI80
ag3
aa(lp2006
I617
aI6
aI87
ag3
aa(lp2007
I617
aI8
aI98
ag3
aa(lp2008
I617
aI1
aI100
ag3
aa(lp2009
I617
aI3
aI125
ag3
aa(lp2010
I618
aI25
aI35
ag1037
aa(lp2011
I618
aI2
aI71
ag3
aa(lp2012
I618
aI12
aI76
ag3
aa(lp2013
I618
aI10
aI81
ag3
aa(lp2014
I618
aI6
aI88
ag3
aa(lp2015
I618
aI1
aI101
ag3
aa(lp2016
I619
aI5
aI28
ag3
aa(lp2017
I619
aI18
aI50
ag3
aa(lp2018
I619
aI2
aI72
ag3
aa(lp2019
I619
aI1
aI102
ag3
aa(lp2020
I619
aI3
aI126
ag3
aa(lp2021
I620
aI43
aI35
ag3
aa(lp2022
I620
aI46
aI38
ag3
aa(lp2023
I620
aI36
aI53
ag3
aa(lp2024
I620
aI14
aI75
ag3
aa(lp2025
I620
aI6
aI89
ag3
aa(lp2026
I620
aI3
aI127
ag3
aa(lp2027
I621
aI45
aI7
ag3
aa(lp2028
I621
aI55
aI12
ag3
aa(lp2029
I621
aI40
aI13
ag3
aa(lp2030
I621
aI57
aI31
ag3
aa(lp2031
I621
aI46
aI39
ag3
aa(lp2032
I621
aI9
aI76
ag3
aa(lp2033
I621
aI14
aI76
ag3
aa(lp2034
I621
aI10
aI82
ag3
aa(lp2035
I621
aI8
aI99
ag3
aa(lp2036
I621
aI1
aI103
ag3
aa(lp2037
I622
aI5
aI29
ag3
aa(lp2038
I622
aI16
aI42
ag3
aa(lp2039
I622
aI18
aI51
ag3
aa(lp2040
I622
aI9
aI77
ag3
aa(lp2041
I622
aI14
aI77
ag3
aa(lp2042
I622
aI6
aI90
ag3
aa(lp2043
I622
aI8
aI100
ag3
aa(lp2044
I622
aI1
aI104
ag3
aa(lp2045
I623
aI43
aI36
ag3
aa(lp2046
I623
aI46
aI40
ag3
aa(lp2047
I623
aI16
aI43
ag3
aa(lp2048
I623
aI18
aI52
ag3
aa(lp2049
I623
aI14
aI78
ag3
aa(lp2050
I623
aI1
aI105
ag3
aa(lp2051
I624
aI11
aI68
ag3
aa(lp2052
I624
aI2
aI73
ag3
aa(lp2053
I624
aI9
aI78
ag3
aa(lp2054
I624
aI14
aI79
ag3
aa(lp2055
I624
aI6
aI91
ag3
aa(lp2056
I625
aI48
aI13
ag3
aa(lp2057
I625
aI55
aI13
ag3
aa(lp2058
I625
aI40
aI14
ag3
aa(lp2059
I625
aI31
aI16
ag3
aa(lp2060
I625
aI57
aI32
ag3
aa(lp2061
I625
aI43
aI37
ag3
aa(lp2062
I625
aI46
aI41
ag3
aa(lp2063
I625
aI16
aI44
ag3
aa(lp2064
I625
aI36
aI54
ag3
aa(lp2065
I625
aI7
aI56
ag3
aa(lp2066
I625
aI11
aI69
ag3
aa(lp2067
I625
aI2
aI74
ag3
aa(lp2068
I625
aI12
aI77
ag3
aa(lp2069
I625
aI10
aI83
ag3
aa(lp2070
I625
aI8
aI101
ag3
aa(lp2071
I625
aI1
aI106
ag3
aa(lp2072
I625
aI3
aI128
ag3
aa(lp2073
I626
aI16
aI45
ag3
aa(lp2074
I626
aI18
aI53
ag3
aa(lp2075
I626
aI12
aI78
ag3
aa(lp2076
I626
aI9
aI79
ag3
aa(lp2077
I626
aI6
aI92
ag3
aa(lp2078
I627
aI5
aI30
ag3
aa(lp2079
I627
aI36
aI55
ag3
aa(lp2080
I627
aI1
aI107
ag3
aa(lp2081
I628
aI49
aI9
ag3
aa(lp2082
I628
aI55
aI14
ag3
aa(lp2083
I628
aI25
aI36
ag1037
aa(lp2084
I628
aI18
aI54
ag3
aa(lp2085
I628
aI2
aI75
ag3
aa(lp2086
I628
aI12
aI79
ag3
aa(lp2087
I628
aI9
aI80
ag3
aa(lp2088
I628
aI10
aI84
ag3
aa(lp2089
I628
aI3
aI129
ag3
aa(lp2090
I629
aI49
aI10
ag3
aa(lp2091
I629
aI40
aI15
ag3
aa(lp2092
I629
aI18
aI55
ag3
aa(lp2093
I629
aI2
aI76
ag3
aa(lp2094
I629
aI12
aI80
ag3
aa(lp2095
I629
aI9
aI81
ag3
aa(lp2096
I629
aI1
aI108
ag3
aa(lp2097
I630
aI40
aI16
ag3
aa(lp2098
I630
aI25
aI37
ag1037
aa(lp2099
I630
aI10
aI85
ag3
aa(lp2100
I630
aI8
aI102
ag3
aa(lp2101
I631
aI30
aI7
ag3
aa(lp2102
I631
aI49
aI11
ag3
aa(lp2103
I631
aI5
aI31
ag3
aa(lp2104
I631
aI1
aI109
ag3
aa(lp2105
I632
aI38
aI11
ag3
aa(lp2106
I632
aI49
aI12
ag3
aa(lp2107
I632
aI48
aI14
ag3
aa(lp2108
I632
aI55
aI15
ag3
aa(lp2109
I632
aI53
aI16
ag3
aa(lp2110
I632
aI5
aI32
ag3
aa(lp2111
I632
aI15
aI45
ag3
aa(lp2112
I632
aI12
aI81
ag3
aa(lp2113
I632
aI9
aI82
ag3
aa(lp2114
I633
aI49
aI13
ag3
aa(lp2115
I633
aI53
aI17
ag3
aa(lp2116
I633
aI25
aI38
ag1037
aa(lp2117
I633
aI2
aI77
ag3
aa(lp2118
I633
aI12
aI82
ag3
aa(lp2119
I633
aI9
aI83
ag3
aa(lp2120
I633
aI8
aI103
ag3
aa(lp2121
I634
aI24
aI15
ag3
aa(lp2122
I634
aI8
aI104
ag3
aa(lp2123
I635
aI24
aI16
ag3
aa(lp2124
I635
aI5
aI33
ag3
aa(lp2125
I635
aI18
aI56
ag3
aa(lp2126
I635
aI1
aI110
ag3
aa(lp2127
I635
aI3
aI130
ag3
aa(lp2128
I636
aI30
aI8
ag3
aa(lp2129
I636
aI31
aI17
ag3
aa(lp2130
I636
aI46
aI42
ag3
aa(lp2131
I636
aI16
aI46
ag3
aa(lp2132
I636
aI28
aI54
ag1037
aa(lp2133
I636
aI36
aI56
ag3
aa(lp2134
I636
aI7
aI57
ag3
aa(lp2135
I636
aI14
aI80
ag3
aa(lp2136
I636
aI9
aI84
ag3
aa(lp2137
I636
aI8
aI105
ag3
aa(lp2138
I636
aI3
aI131
ag3
aa(lp2139
I637
aI30
aI9
ag3
aa(lp2140
I637
aI48
aI15
ag3
aa(lp2141
I637
aI5
aI34
ag3
aa(lp2142
I637
aI46
aI43
ag3
aa(lp2143
I637
aI7
aI58
ag3
aa(lp2144
I637
aI11
aI70
ag3
aa(lp2145
I637
aI2
aI78
ag3
aa(lp2146
I637
aI14
aI81
ag3
aa(lp2147
I637
aI10
aI86
ag3
aa(lp2148
I637
aI8
aI106
ag3
aa(lp2149
I637
aI3
aI132
ag3
aa(lp2150
I638
aI16
aI47
ag3
aa(lp2151
I638
aI18
aI57
ag3
aa(lp2152
I639
aI5
aI35
ag3
aa(lp2153
I639
aI18
aI58
ag3
aa(lp2154
I639
aI14
aI82
ag3
aa(lp2155
I639
aI3
aI133
ag3
aa(lp2156
I640
aI43
aI38
ag3
aa(lp2157
I643
aI40
aI17
ag3
aa(lp2158
I643
aI5
aI36
ag3
aa(lp2159
I643
aI18
aI59
ag3
aa(lp2160
I643
aI3
aI134
ag3
aa(lp2161
I644
aI48
aI16
ag3
aa(lp2162
I644
aI52
aI17
ag3
aa(lp2163
I644
aI46
aI44
ag3
aa(lp2164
I644
aI7
aI59
ag3
aa(lp2165
I644
aI12
aI83
ag3
aa(lp2166
I644
aI14
aI83
ag3
aa(lp2167
I644
aI6
aI93
ag3
aa(lp2168
I644
aI1
aI111
ag3
aa(lp2169
I644
aI3
aI135
ag3
aa(lp2170
I645
aI21
aI5
ag3
aa(lp2171
I645
aI40
aI18
ag3
aa(lp2172
I645
aI52
aI18
ag3
aa(lp2173
I645
aI54
aI20
ag3
aa(lp2174
I645
aI36
aI57
ag1037
aa(lp2175
I645
aI18
aI60
ag3
aa(lp2176
I645
aI11
aI71
ag3
aa(lp2177
I645
aI2
aI79
ag3
aa(lp2178
I645
aI14
aI84
ag3
aa(lp2179
I645
aI10
aI87
ag3
aa(lp2180
I645
aI6
aI94
ag3
aa(lp2181
I645
aI8
aI107
ag3
aa(lp2182
I645
aI3
aI136
ag3
aa(lp2183
I646
aI24
aI17
ag3
aa(lp2184
I646
aI51
aI19
ag3
aa(lp2185
I646
aI52
aI19
ag3
aa(lp2186
I646
aI54
aI21
ag3
aa(lp2187
I646
aI5
aI37
ag3
aa(lp2188
I646
aI16
aI48
ag3
aa(lp2189
I647
aI5
aI38
ag3
aa(lp2190
I647
aI43
aI39
ag3
aa(lp2191
I647
aI18
aI61
ag3
aa(lp2192
I647
aI9
aI85
ag3
aa(lp2193
I647
aI1
aI112
ag3
aa(lp2194
I648
aI46
aI45
ag1037
aa(lp2195
I648
aI16
aI49
ag3
aa(lp2196
I648
aI28
aI55
ag1037
aa(lp2197
I648
aI36
aI58
ag1037
aa(lp2198
I648
aI3
aI137
ag3
aa(lp2199
I649
aI32
aI3
ag3
aa(lp2200
I649
aI24
aI18
ag3
aa(lp2201
I649
aI16
aI50
ag3
aa(lp2202
I649
aI36
aI59
ag1037
aa(lp2203
I649
aI2
aI80
ag3
aa(lp2204
I649
aI14
aI85
ag3
aa(lp2205
I649
aI8
aI108
ag3
aa(lp2206
I649
aI1
aI113
ag3
aa(lp2207
I649
aI3
aI138
ag3
aa(lp2208
I650
aI18
aI62
ag3
aa(lp2209
I651
aI5
aI39
ag3
aa(lp2210
I651
aI18
aI63
ag3
aa(lp2211
I651
aI6
aI95
ag3
aa(lp2212
I651
aI1
aI114
ag3
aa(lp2213
I652
aI48
aI17
ag3
aa(lp2214
I652
aI16
aI51
ag3
aa(lp2215
I652
aI7
aI60
ag3
aa(lp2216
I652
aI36
aI60
ag1037
aa(lp2217
I652
aI9
aI86
ag3
aa(lp2218
I652
aI14
aI86
ag3
aa(lp2219
I652
aI6
aI96
ag3
aa(lp2220
I652
aI3
aI139
ag3
aa(lp2221
I653
aI31
aI18
ag3
aa(lp2222
I653
aI52
aI20
ag3
aa(lp2223
I653
aI5
aI40
ag3
aa(lp2224
I653
aI36
aI61
ag1037
aa(lp2225
I653
aI18
aI64
ag3
aa(lp2226
I653
aI2
aI81
ag3
aa(lp2227
I653
aI14
aI87
ag3
aa(lp2228
I653
aI8
aI109
ag3
aa(lp2229
I654
aI5
aI41
ag3
aa(lp2230
I654
aI46
aI46
ag1037
aa(lp2231
I654
aI9
aI87
ag3
aa(lp2232
I654
aI10
aI88
ag3
aa(lp2233
I654
aI6
aI97
ag3
aa(lp2234
I654
aI1
aI115
ag3
aa(lp2235
I655
aI5
aI42
ag3
aa(lp2236
I655
aI11
aI72
ag3
aa(lp2237
I655
aI1
aI116
ag3
aa(lp2238
I656
aI52
aI21
ag3
aa(lp2239
I656
aI5
aI43
ag3
aa(lp2240
I656
aI16
aI52
ag3
aa(lp2241
I656
aI36
aI62
ag1037
aa(lp2242
I656
aI2
aI82
ag3
aa(lp2243
I656
aI12
aI84
ag3
aa(lp2244
I656
aI3
aI140
ag3
aa(lp2245
I657
aI45
aI8
ag3
aa(lp2246
I657
aI40
aI19
ag3
aa(lp2247
I657
aI37
aI25
ag3
aa(lp2248
I657
aI16
aI53
ag3
aa(lp2249
I657
aI7
aI61
ag3
aa(lp2250
I657
aI11
aI73
ag3
aa(lp2251
I657
aI2
aI83
ag3
aa(lp2252
I657
aI12
aI85
ag3
aa(lp2253
I657
aI10
aI89
ag3
aa(lp2254
I657
aI8
aI110
ag3
aa(lp2255
I657
aI1
aI117
ag3
aa(lp2256
I657
aI3
aI141
ag3
aa(lp2257
I661
aI40
aI20
ag3
aa(lp2258
I661
aI57
aI33
ag3
aa(lp2259
I661
aI5
aI44
ag3
aa(lp2260
I661
aI12
aI86
ag3
aa(lp2261
I661
aI14
aI88
ag3
aa(lp2262
I661
aI10
aI90
ag3
aa(lp2263
I661
aI1
aI118
ag3
aa(lp2264
I662
aI5
aI45
ag3
aa(lp2265
I662
aI16
aI54
ag3
aa(lp2266
I663
aI5
aI46
ag3
aa(lp2267
I663
aI20
aI69
ag3
aa(lp2268
I663
aI1
aI119
ag3
aa(lp2269
I664
aI5
aI47
ag3
aa(lp2270
I664
aI46
aI47
ag1037
aa(lp2271
I664
aI16
aI55
ag3
aa(lp2272
I664
aI28
aI56
ag1037
aa(lp2273
I664
aI11
aI74
ag3
aa(lp2274
I664
aI12
aI87
ag3
aa(lp2275
I664
aI9
aI88
ag3
aa(lp2276
I664
aI10
aI91
ag3
aa(lp2277
I664
aI3
aI142
ag3
aa(lp2278
I665
aI45
aI9
ag3
aa(lp2279
I665
aI38
aI12
ag3
aa(lp2280
I665
aI39
aI14
ag3
aa(lp2281
I665
aI33
aI22
ag3
aa(lp2282
I665
aI5
aI48
ag3
aa(lp2283
I665
aI46
aI48
ag1037
aa(lp2284
I665
aI16
aI56
ag3
aa(lp2285
I665
aI7
aI62
ag3
aa(lp2286
I665
aI2
aI84
ag3
aa(lp2287
I665
aI12
aI88
ag3
aa(lp2288
I665
aI9
aI89
ag3
aa(lp2289
I665
aI8
aI111
ag3
aa(lp2290
I665
aI1
aI120
ag3
aa(lp2291
I666
aI51
aI20
ag3
aa(lp2292
I667
aI45
aI10
ag3
aa(lp2293
I667
aI57
aI34
ag3
aa(lp2294
I667
aI5
aI49
ag3
aa(lp2295
I667
aI6
aI98
ag3
aa(lp2296
I667
aI3
aI143
ag3
aa(lp2297
I668
aI19
aI15
ag3
aa(lp2298
I668
aI33
aI23
ag3
aa(lp2299
I668
aI37
aI26
ag3
aa(lp2300
I668
aI28
aI57
ag1037
aa(lp2301
I668
aI12
aI89
ag3
aa(lp2302
I668
aI14
aI89
ag3
aa(lp2303
I668
aI9
aI90
ag3
aa(lp2304
I668
aI3
aI144
ag3
aa(lp2305
I669
aI45
aI11
ag3
aa(lp2306
I669
aI24
aI19
ag3
aa(lp2307
I669
aI51
aI21
ag3
aa(lp2308
I669
aI57
aI35
ag3
aa(lp2309
I669
aI46
aI49
ag1037
aa(lp2310
I669
aI7
aI63
ag3
aa(lp2311
I669
aI36
aI63
ag1037
aa(lp2312
I669
aI2
aI85
ag3
aa(lp2313
I669
aI10
aI92
ag3
aa(lp2314
I669
aI8
aI112
ag3
aa(lp2315
I669
aI3
aI145
ag3
aa(lp2316
I671
aI45
aI12
ag3
aa(lp2317
I671
aI5
aI50
ag3
aa(lp2318
I671
aI18
aI65
ag3
aa(lp2319
I671
aI3
aI146
ag3
aa(lp2320
I672
aI18
aI66
ag3
aa(lp2321
I672
aI6
aI99
ag3
aa(lp2322
I672
aI3
aI147
ag3
aa(lp2323
I674
aI24
aI20
ag3
aa(lp2324
I674
aI9
aI91
ag3
aa(lp2325
I675
aI45
aI13
ag3
aa(lp2326
I675
aI51
aI22
ag3
aa(lp2327
I675
aI5
aI51
ag3
aa(lp2328
I675
aI18
aI67
ag3
aa(lp2329
I675
aI8
aI113
ag3
aa(lp2330
I675
aI1
aI121
ag3
aa(lp2331
I675
aI3
aI148
ag3
aa(lp2332
I676
aI52
aI22
ag3
aa(lp2333
I676
aI16
aI57
ag3
aa(lp2334
I676
aI28
aI58
ag1037
aa(lp2335
I676
aI6
aI100
ag3
aa(lp2336
I676
aI3
aI149
ag3
aa(lp2337
I682
aI5
aI52
ag3
aa(lp2338
I682
aI11
aI75
ag3
aa(lp2339
I682
aI10
aI93
ag3
aa(lp2340
I682
aI6
aI101
ag3
aa(lp2341
I682
aI8
aI114
ag3
aa(lp2342
I683
aI5
aI53
ag3
aa(lp2343
I683
aI8
aI115
ag3
aa(lp2344
I684
aI5
aI54
ag3
aa(lp2345
I687
aI49
aI14
ag3
aa(lp2346
I687
aI11
aI76
ag3
aa(lp2347
I690
aI41
aI26
ag3
aa(lp2348
I690
aI10
aI94
ag3
aa(lp2349
I697
aI45
aI14
ag3
aa(lp2350
I697
aI31
aI19
ag3
aa(lp2351
I697
aI51
aI23
ag3
aa(lp2352
I697
aI41
aI27
ag3
aa(lp2353
I697
aI5
aI55
ag3
aa(lp2354
I697
aI14
aI90
ag3
aa(lp2355
I697
aI3
aI150
ag3
aa(lp2356
I698
aI24
aI21
ag3
aa(lp2357
I698
aI57
aI36
ag3
aa(lp2358
I698
aI16
aI58
ag3
aa(lp2359
I698
aI12
aI90
ag3
aa(lp2360
I698
aI6
aI102
ag3
aa(lp2361
I698
aI8
aI116
ag3
aa(lp2362
I699
aI5
aI56
ag3
aa(lp2363
I699
aI9
aI92
ag3
aa(lp2364
I707
aI45
aI15
ag3
aa(lp2365
I707
aI5
aI57
ag3
aa(lp2366
I707
aI12
aI91
ag3
aa(lp2367
I707
aI1
aI122
ag3
aa(lp2368
I711
aI55
aI16
ag3
aa(lp2369
I711
aI53
aI18
ag3
aa(lp2370
I711
aI12
aI92
ag3
aa(lp2371
I712
aI55
aI17
ag3
aa(lp2372
I712
aI37
aI27
ag3
aa(lp2373
I712
aI5
aI58
ag3
aa(lp2374
I712
aI16
aI59
ag3
aa(lp2375
I712
aI11
aI77
ag3
aa(lp2376
I712
aI2
aI86
ag3
aa(lp2377
I712
aI6
aI103
ag3
aa(lp2378
I712
aI8
aI117
ag3
aa(lp2379
I712
aI3
aI151
ag3
aa(lp2380
I713
aI30
aI10
ag3
aa(lp2381
I713
aI45
aI16
ag3
aa(lp2382
I713
aI53
aI19
ag3
aa(lp2383
I713
aI31
aI20
ag3
aa(lp2384
I713
aI51
aI24
ag3
aa(lp2385
I713
aI27
aI25
ag3
aa(lp2386
I713
aI46
aI50
ag1037
aa(lp2387
I713
aI16
aI60
ag3
aa(lp2388
I713
aI11
aI78
ag3
aa(lp2389
I713
aI2
aI87
ag3
aa(lp2390
I713
aI10
aI95
ag3
aa(lp2391
I713
aI8
aI118
ag3
aa(lp2392
I714
aI32
aI4
ag3
aa(lp2393
I714
aI37
aI28
ag3
aa(lp2394
I714
aI2
aI88
ag3
aa(lp2395
I714
aI10
aI96
ag3
aa(lp2396
I714
aI8
aI119
ag3
aa(lp2397
I715
aI30
aI11
ag3
aa(lp2398
I715
aI5
aI59
ag3
aa(lp2399
I715
aI12
aI93
ag3
aa(lp2400
I716
aI30
aI12
ag3
aa(lp2401
I716
aI11
aI79
ag3
aa(lp2402
I716
aI9
aI93
ag3
aa(lp2403
I716
aI8
aI120
ag3
aa(lp2404
I717
aI38
aI13
ag3
aa(lp2405
I717
aI45
aI17
ag3
aa(lp2406
I717
aI24
aI22
ag3
aa(lp2407
I717
aI54
aI22
ag3
aa(lp2408
I717
aI27
aI26
ag3
aa(lp2409
I717
aI5
aI60
ag3
aa(lp2410
I717
aI36
aI64
ag1037
aa(lp2411
I717
aI11
aI80
ag3
aa(lp2412
I717
aI2
aI89
ag3
aa(lp2413
I717
aI10
aI97
ag3
aa(lp2414
I717
aI8
aI121
ag3
aa(lp2415
I717
aI3
aI152
ag3
aa(lp2416
I718
aI32
aI5
ag3
aa(lp2417
I718
aI41
aI28
ag3
aa(lp2418
I719
aI45
aI18
ag3
aa(lp2419
I719
aI5
aI61
ag3
aa(lp2420
I719
aI14
aI91
ag3
aa(lp2421
I720
aI27
aI27
ag3
aa(lp2422
I720
aI28
aI59
ag1037
aa(lp2423
I720
aI5
aI62
ag3
aa(lp2424
I720
aI9
aI94
ag3
aa(lp2425
I720
aI6
aI104
ag3
aa(lp2426
I720
aI8
aI122
ag3
aa(lp2427
I720
aI3
aI153
ag3
aa(lp2428
I721
aI55
aI18
ag3
aa(lp2429
I721
aI45
aI19
ag3
aa(lp2430
I721
aI31
aI21
ag3
aa(lp2431
I721
aI51
aI25
ag3
aa(lp2432
I721
aI37
aI29
ag3
aa(lp2433
I721
aI15
aI46
ag3
aa(lp2434
I721
aI16
aI61
ag3
aa(lp2435
I721
aI2
aI90
ag3
aa(lp2436
I721
aI14
aI92
ag3
aa(lp2437
I721
aI10
aI98
ag3
aa(lp2438
I721
aI3
aI154
ag3
aa(lp2439
I722
aI32
aI6
ag3
aa(lp2440
I722
aI18
aI68
ag3
aa(lp2441
I723
aI5
aI63
ag3
aa(lp2442
I723
aI36
aI65
ag1037
aa(lp2443
I745
aI32
aI7
ag3
aa(lp2444
I745
aI35
aI12
ag3
aa(lp2445
I745
aI38
aI14
ag3
aa(lp2446
I745
aI24
aI23
ag3
aa(lp2447
I745
aI51
aI26
ag3
aa(lp2448
I745
aI1
aI123
ag3
aa(lp2449
I746
aI32
aI8
ag3
aa(lp2450
I746
aI38
aI15
ag3
aa(lp2451
I746
aI24
aI24
ag3
aa(lp2452
I746
aI11
aI81
ag3
aa(lp2453
I746
aI10
aI99
ag3
aa(lp2454
I746
aI8
aI123
ag3
aa(lp2455
I747
aI21
aI6
ag3
aa(lp2456
I747
aI32
aI9
ag3
aa(lp2457
I747
aI5
aI64
ag3
aa(lp2458
I747
aI2
aI91
ag3
aa(lp2459
I747
aI6
aI105
ag3
aa(lp2460
I747
aI1
aI124
ag3
aa(lp2461
I747
aI8
aI124
ag3
aa(lp2462
I748
aI55
aI19
ag3
aa(lp2463
I748
aI54
aI23
ag3
aa(lp2464
I748
aI27
aI28
ag3
aa(lp2465
I748
aI28
aI60
ag1037
aa(lp2466
I748
aI14
aI93
ag3
aa(lp2467
I748
aI9
aI95
ag3
aa(lp2468
I748
aI6
aI106
ag3
aa(lp2469
I749
aI56
aI0
ag3
aa(lp2470
I749
aI21
aI7
ag3
aa(lp2471
I749
aI32
aI10
ag3
aa(lp2472
I749
aI55
aI20
ag3
aa(lp2473
I749
aI37
aI30
ag3
aa(lp2474
I749
aI57
aI37
ag3
aa(lp2475
I749
aI5
aI65
ag3
aa(lp2476
I749
aI2
aI92
ag3
aa(lp2477
I749
aI14
aI94
ag3
aa(lp2478
I749
aI9
aI96
ag3
aa(lp2479
I749
aI8
aI125
ag3
aa(lp2480
I749
aI3
aI155
ag3
aa(lp2481
I750
aI27
aI29
ag3
aa(lp2482
I750
aI1
aI125
ag3
aa(lp2483
I761
aI39
aI15
ag3
aa(lp2484
I761
aI7
aI64
ag3
aa(lp2485
I761
aI1
aI126
ag3
aa(lp2486
I761
aI3
aI156
ag3
aa(lp2487
I762
aI39
aI16
ag3
aa(lp2488
I762
aI24
aI25
ag3
aa(lp2489
I762
aI18
aI69
ag3
aa(lp2490
I762
aI6
aI107
ag3
aa(lp2491
I762
aI8
aI126
ag3
aa(lp2492
I763
aI49
aI15
ag3
aa(lp2493
I763
aI39
aI17
ag3
aa(lp2494
I763
aI45
aI20
ag3
aa(lp2495
I763
aI7
aI65
ag3
aa(lp2496
I763
aI5
aI66
ag3
aa(lp2497
I763
aI36
aI66
ag1037
aa(lp2498
I763
aI18
aI70
ag3
aa(lp2499
I763
aI2
aI93
ag3
aa(lp2500
I763
aI1
aI127
ag3
aa(lp2501
I763
aI3
aI157
ag3
aa(lp2502
I764
aI49
aI16
ag3
aa(lp2503
I764
aI55
aI21
ag3
aa(lp2504
I764
aI52
aI23
ag3
aa(lp2505
I764
aI43
aI40
ag3
aa(lp2506
I764
aI28
aI61
ag1037
aa(lp2507
I764
aI14
aI95
ag3
aa(lp2508
I764
aI8
aI127
ag3
aa(lp2509
I764
aI3
aI158
ag3
aa(lp2510
I765
aI47
aI8
ag3
aa(lp2511
I765
aI32
aI11
ag3
aa(lp2512
I765
aI49
aI17
ag3
aa(lp2513
I765
aI45
aI21
ag3
aa(lp2514
I765
aI27
aI30
ag3
aa(lp2515
I765
aI57
aI38
ag3
aa(lp2516
I765
aI46
aI51
ag1037
aa(lp2517
I765
aI7
aI66
ag3
aa(lp2518
I765
aI5
aI67
ag3
aa(lp2519
I765
aI18
aI71
ag3
aa(lp2520
I765
aI11
aI82
ag3
aa(lp2521
I765
aI2
aI94
ag3
aa(lp2522
I765
aI14
aI96
ag3
aa(lp2523
I765
aI9
aI97
ag3
aa(lp2524
I765
aI6
aI108
ag3
aa(lp2525
I765
aI1
aI128
ag3
aa(lp2526
I765
aI8
aI128
ag3
aa(lp2527
I765
aI3
aI159
ag3
aa(lp2528
I766
aI47
aI9
ag3
aa(lp2529
I766
aI39
aI18
ag3
aa(lp2530
I766
aI49
aI18
ag3
aa(lp2531
I766
aI24
aI26
ag3
aa(lp2532
I766
aI3
aI160
ag3
aa(lp2533
I767
aI32
aI12
ag3
aa(lp2534
I767
aI27
aI31
ag3
aa(lp2535
I767
aI13
aI57
ag3
aa(lp2536
I767
aI5
aI68
ag3
aa(lp2537
I767
aI10
aI100
ag3
aa(lp2538
I767
aI1
aI129
ag3
aa(lp2539
I767
aI8
aI129
ag3
aa(lp2540
I768
aI47
aI10
ag3
aa(lp2541
I768
aI30
aI13
ag3
aa(lp2542
I768
aI32
aI13
ag3
aa(lp2543
I768
aI50
aI14
ag3
aa(lp2544
I768
aI48
aI18
ag3
aa(lp2545
I768
aI54
aI24
ag3
aa(lp2546
I768
aI27
aI32
ag3
aa(lp2547
I768
aI2
aI95
ag3
aa(lp2548
I768
aI14
aI97
ag3
aa(lp2549
I768
aI9
aI98
ag3
aa(lp2550
I768
aI6
aI109
ag3
aa(lp2551
I768
aI8
aI130
ag3
aa(lp2552
I769
aI47
aI11
ag3
aa(lp2553
I769
aI32
aI14
ag3
aa(lp2554
I769
aI39
aI19
ag3
aa(lp2555
I769
aI53
aI20
ag3
aa(lp2556
I769
aI55
aI22
ag3
aa(lp2557
I769
aI54
aI25
ag3
aa(lp2558
I769
aI27
aI33
ag3
aa(lp2559
I769
aI13
aI58
ag3
aa(lp2560
I769
aI11
aI83
ag3
aa(lp2561
I769
aI2
aI96
ag3
aa(lp2562
I769
aI9
aI99
ag3
aa(lp2563
I769
aI10
aI101
ag3
aa(lp2564
I769
aI6
aI110
ag3
aa(lp2565
I769
aI1
aI130
ag3
aa(lp2566
I769
aI3
aI161
ag3
aa(lp2567
I770
aI21
aI8
ag3
aa(lp2568
I770
aI47
aI12
ag3
aa(lp2569
I770
aI57
aI39
ag3
aa(lp2570
I770
aI11
aI84
ag3
aa(lp2571
I771
aI32
aI15
ag3
aa(lp2572
I771
aI50
aI15
ag3
aa(lp2573
I771
aI27
aI34
ag3
aa(lp2574
I771
aI7
aI67
ag3
aa(lp2575
I771
aI11
aI85
ag3
aa(lp2576
I771
aI2
aI97
ag3
aa(lp2577
I771
aI10
aI102
ag3
aa(lp2578
I771
aI1
aI131
ag3
aa(lp2579
I772
aI47
aI13
ag3
aa(lp2580
I772
aI30
aI14
ag3
aa(lp2581
I772
aI32
aI16
ag3
aa(lp2582
I772
aI39
aI20
ag3
aa(lp2583
I772
aI53
aI21
ag3
aa(lp2584
I772
aI45
aI22
ag3
aa(lp2585
I772
aI13
aI59
ag3
aa(lp2586
I772
aI16
aI62
ag3
aa(lp2587
I772
aI2
aI98
ag3
aa(lp2588
I772
aI9
aI100
ag3
aa(lp2589
I773
aI47
aI14
ag3
aa(lp2590
I773
aI38
aI16
ag3
aa(lp2591
I773
aI32
aI17
ag3
aa(lp2592
I773
aI39
aI21
ag3
aa(lp2593
I773
aI53
aI22
ag3
aa(lp2594
I773
aI45
aI23
ag3
aa(lp2595
I773
aI51
aI27
ag3
aa(lp2596
I773
aI43
aI41
ag3
aa(lp2597
I773
aI36
aI67
ag1037
aa(lp2598
I773
aI7
aI68
ag3
aa(lp2599
I773
aI5
aI69
ag3
aa(lp2600
I773
aI14
aI98
ag3
aa(lp2601
I773
aI2
aI99
ag3
aa(lp2602
I773
aI10
aI103
ag3
aa(lp2603
I773
aI1
aI132
ag3
aa(lp2604
I773
aI3
aI162
ag3
aa(lp2605
I774
aI38
aI17
ag3
aa(lp2606
I774
aI39
aI22
ag3
aa(lp2607
I774
aI10
aI104
ag3
aa(lp2608
I775
aI19
aI16
ag3
aa(lp2609
I775
aI5
aI70
ag3
aa(lp2610
I775
aI1
aI133
ag3
aa(lp2611
I776
aI56
aI1
ag3
aa(lp2612
I776
aI19
aI17
ag3
aa(lp2613
I776
aI32
aI18
ag3
aa(lp2614
I776
aI38
aI18
ag3
aa(lp2615
I776
aI37
aI31
ag3
aa(lp2616
I776
aI5
aI71
ag3
aa(lp2617
I776
aI14
aI99
ag3
aa(lp2618
I776
aI2
aI100
ag3
aa(lp2619
I776
aI8
aI131
ag3
aa(lp2620
I776
aI3
aI163
ag3
aa(lp2621
I777
aI8
aI132
ag3
aa(lp2622
I778
aI8
aI133
ag3
aa(lp2623
I779
aI32
aI19
ag3
aa(lp2624
I779
aI5
aI72
ag3
aa(lp2625
I779
aI6
aI111
ag3
aa(lp2626
I780
aI38
aI19
ag3
aa(lp2627
I780
aI28
aI62
ag1037
aa(lp2628
I780
aI16
aI63
ag3
aa(lp2629
I780
aI5
aI73
ag3
aa(lp2630
I780
aI9
aI101
ag3
aa(lp2631
I780
aI6
aI112
ag3
aa(lp2632
I781
aI56
aI2
ag3
aa(lp2633
I781
aI30
aI15
ag3
aa(lp2634
I781
aI47
aI15
ag3
aa(lp2635
I781
aI48
aI19
ag3
aa(lp2636
I781
aI38
aI20
ag3
aa(lp2637
I781
aI39
aI23
ag3
aa(lp2638
I781
aI55
aI23
ag3
aa(lp2639
I781
aI37
aI32
ag3
aa(lp2640
I781
aI25
aI39
ag1037
aa(lp2641
I781
aI43
aI42
ag3
aa(lp2642
I781
aI13
aI60
ag1037
aa(lp2643
I781
aI16
aI64
ag3
aa(lp2644
I781
aI14
aI100
ag3
aa(lp2645
I781
aI9
aI102
ag3
aa(lp2646
I781
aI6
aI113
ag3
aa(lp2647
I781
aI1
aI134
ag3
aa(lp2648
I781
aI3
aI164
ag3
aa(lp2649
I782
aI13
aI61
ag1037
aa(lp2650
I782
aI2
aI101
ag3
aa(lp2651
I782
aI10
aI105
ag3
aa(lp2652
I782
aI6
aI114
ag3
aa(lp2653
I784
aI32
aI20
ag3
aa(lp2654
I784
aI28
aI63
ag1037
aa(lp2655
I791
aI39
aI24
ag3
aa(lp2656
I791
aI55
aI24
ag3
aa(lp2657
I791
aI36
aI68
ag1037
aa(lp2658
I791
aI5
aI74
ag3
aa(lp2659
I791
aI14
aI101
ag3
aa(lp2660
I791
aI1
aI135
ag3
aa(lp2661
I792
aI45
aI24
ag3
aa(lp2662
I792
aI51
aI28
ag3
aa(lp2663
I792
aI28
aI64
ag1037
aa(lp2664
I795
aI41
aI29
ag3
aa(lp2665
I795
aI1
aI136
ag3
aa(lp2666
I796
aI50
aI16
ag3
aa(lp2667
I796
aI33
aI24
ag3
aa(lp2668
I796
aI37
aI33
ag3
aa(lp2669
I796
aI5
aI75
ag3
aa(lp2670
I796
aI2
aI102
ag3
aa(lp2671
I797
aI36
aI69
ag1037
aa(lp2672
I797
aI2
aI103
ag3
aa(lp2673
I797
aI9
aI103
ag3
aa(lp2674
I797
aI1
aI137
ag3
aa(lp2675
I797
aI3
aI165
ag3
aa(lp2676
I798
aI3
aI166
ag3
aa(lp2677
I799
aI52
aI24
ag3
aa(lp2678
I799
aI5
aI76
ag3
aa(lp2679
I799
aI1
aI138
ag3
aa(lp2680
I800
aI19
aI18
ag3
aa(lp2681
I800
aI38
aI21
ag3
aa(lp2682
I800
aI53
aI23
ag3
aa(lp2683
I800
aI13
aI62
ag1037
aa(lp2684
I800
aI7
aI69
ag3
aa(lp2685
I800
aI2
aI104
ag3
aa(lp2686
I800
aI9
aI104
ag3
aa(lp2687
I802
aI24
aI27
ag3
aa(lp2688
I802
aI57
aI40
ag3
aa(lp2689
I802
aI16
aI65
ag3
aa(lp2690
I802
aI2
aI105
ag3
aa(lp2691
I803
aI32
aI21
ag3
aa(lp2692
I803
aI18
aI72
ag3
aa(lp2693
I803
aI5
aI77
ag3
aa(lp2694
I803
aI1
aI139
ag3
aa(lp2695
I803
aI3
aI167
ag3
aa(lp2696
I804
aI32
aI22
ag3
aa(lp2697
I804
aI33
aI25
ag3
aa(lp2698
I804
aI45
aI25
ag3
aa(lp2699
I804
aI37
aI34
ag3
aa(lp2700
I804
aI46
aI52
ag1037
aa(lp2701
I804
aI28
aI65
ag1037
aa(lp2702
I804
aI16
aI66
ag3
aa(lp2703
I804
aI18
aI73
ag3
aa(lp2704
I804
aI14
aI102
ag3
aa(lp2705
I804
aI9
aI105
ag3
aa(lp2706
I805
aI32
aI23
ag3
aa(lp2707
I805
aI39
aI25
ag3
aa(lp2708
I805
aI54
aI26
ag3
aa(lp2709
I805
aI37
aI35
ag3
aa(lp2710
I805
aI25
aI40
ag1037
aa(lp2711
I805
aI46
aI53
ag1037
aa(lp2712
I805
aI16
aI67
ag3
aa(lp2713
I805
aI14
aI103
ag3
aa(lp2714
I805
aI2
aI106
ag3
aa(lp2715
I805
aI1
aI140
ag3
aa(lp2716
I805
aI3
aI168
ag3
aa(lp2717
I806
aI32
aI24
ag3
aa(lp2718
I806
aI33
aI26
ag3
aa(lp2719
I806
aI37
aI36
ag3
aa(lp2720
I806
aI57
aI41
ag3
aa(lp2721
I806
aI18
aI74
ag3
aa(lp2722
I869
aI45
aI26
ag3
aa(lp2723
I869
aI11
aI86
ag3
aa(lp2724
I869
aI12
aI94
ag1037
aa(lp2725
I869
aI10
aI106
ag3
aa(lp2726
I870
aI12
aI95
ag1037
aa(lp2727
I871
aI21
aI9
ag3
aa(lp2728
I871
aI20
aI70
ag3
aa(lp2729
I871
aI18
aI75
ag3
aa(lp2730
I871
aI5
aI78
ag3
aa(lp2731
I871
aI3
aI169
ag3
aa(lp2732
I872
aI31
aI22
ag3
aa(lp2733
I872
aI32
aI25
ag3
aa(lp2734
I872
aI45
aI27
ag3
aa(lp2735
I872
aI16
aI68
ag3
aa(lp2736
I872
aI14
aI104
ag3
aa(lp2737
I872
aI9
aI106
ag3
aa(lp2738
I873
aI21
aI10
ag3
aa(lp2739
I873
aI32
aI26
ag3
aa(lp2740
I873
aI12
aI96
ag1037
aa(lp2741
I886
aI35
aI13
ag3
aa(lp2742
I887
aI21
aI11
ag3
aa(lp2743
I887
aI47
aI16
ag3
aa(lp2744
I887
aI19
aI19
ag3
aa(lp2745
I887
aI20
aI71
ag3
aa(lp2746
I887
aI18
aI76
ag3
aa(lp2747
I887
aI5
aI79
ag3
aa(lp2748
I887
aI8
aI134
ag3
aa(lp2749
I887
aI1
aI141
ag3
aa(lp2750
I887
aI3
aI170
ag3
aa(lp2751
I888
aI32
aI27
ag3
aa(lp2752
I901
aI51
aI29
ag3
aa(lp2753
I901
aI27
aI35
ag3
aa(lp2754
I901
aI36
aI70
ag1037
aa(lp2755
I901
aI20
aI72
ag3
aa(lp2756
I901
aI14
aI105
ag3
aa(lp2757
I901
aI1
aI142
ag3
aa(lp2758
I902
aI51
aI30
ag3
aa(lp2759
I902
aI57
aI42
ag3
aa(lp2760
I906
aI9
aI107
ag3
aa(lp2761
I907
aI21
aI12
ag3
aa(lp2762
I907
aI53
aI24
ag3
aa(lp2763
I907
aI25
aI41
ag1037
aa(lp2764
I907
aI1
aI143
ag3
aa(lp2765
I907
aI3
aI171
ag3
aa(lp2766
I908
aI35
aI14
ag3
aa(lp2767
I908
aI39
aI26
ag3
aa(lp2768
I908
aI2
aI107
ag3
aa(lp2769
I908
aI9
aI108
ag3
aa(lp2770
I909
aI56
aI3
ag3
aa(lp2771
I909
aI21
aI13
ag3
aa(lp2772
I909
aI35
aI15
ag3
aa(lp2773
I909
aI30
aI16
ag3
aa(lp2774
I909
aI40
aI21
ag3
aa(lp2775
I909
aI45
aI28
ag3
aa(lp2776
I909
aI46
aI54
ag1037
aa(lp2777
I909
aI16
aI69
ag3
aa(lp2778
I909
aI7
aI70
ag3
aa(lp2779
I909
aI20
aI73
ag3
aa(lp2780
I909
aI5
aI80
ag3
aa(lp2781
I909
aI2
aI108
ag3
aa(lp2782
I909
aI9
aI109
ag3
aa(lp2783
I909
aI1
aI144
ag3
aa(lp2784
I910
aI39
aI27
ag3
aa(lp2785
I910
aI14
aI106
ag3
aa(lp2786
I910
aI10
aI107
ag3
aa(lp2787
I911
aI21
aI14
ag3
aa(lp2788
I911
aI36
aI71
ag1037
aa(lp2789
I911
aI5
aI81
ag3
aa(lp2790
I911
aI12
aI97
ag1037
aa(lp2791
I911
aI2
aI109
ag3
aa(lp2792
I911
aI1
aI145
ag3
aa(lp2793
I912
aI21
aI15
ag3
aa(lp2794
I912
aI19
aI20
ag3
aa(lp2795
I912
aI32
aI28
ag3
aa(lp2796
I912
aI27
aI36
ag3
aa(lp2797
I912
aI57
aI43
ag3
aa(lp2798
I912
aI12
aI98
ag1037
aa(lp2799
I912
aI10
aI108
ag3
aa(lp2800
I912
aI2
aI110
ag3
aa(lp2801
I912
aI9
aI110
ag3
aa(lp2802
I1001
aI23
aI0
ag3
aa(lp2803
I1001
aI30
aI17
ag3
aa(lp2804
I1001
aI19
aI21
ag3
aa(lp2805
I1001
aI37
aI37
ag3
aa(lp2806
I1001
aI7
aI71
ag3
aa(lp2807
I1001
aI11
aI87
ag3
aa(lp2808
I1001
aI10
aI109
ag3
aa(lp2809
I1001
aI2
aI111
ag3
aa(lp2810
I1001
aI8
aI135
ag3
aa(lp2811
I1001
aI1
aI146
ag3
aa(lp2812
I1001
aI3
aI172
ag3
aa(lp2813
I1002
aI23
aI1
ag3
aa(lp2814
I1002
aI24
aI28
ag3
aa(lp2815
I1002
aI1
aI147
ag3
aa(lp2816
I1003
aI5
aI82
ag3
aa(lp2817
I1003
aI2
aI112
ag3
aa(lp2818
I1015
aI21
aI16
ag3
aa(lp2819
I1015
aI45
aI29
ag3
aa(lp2820
I1015
aI20
aI74
ag3
aa(lp2821
I1015
aI18
aI77
ag3
aa(lp2822
I1015
aI5
aI83
ag3
aa(lp2823
I1015
aI6
aI115
ag3
aa(lp2824
I1015
aI1
aI148
ag3
aa(lp2825
I1015
aI3
aI173
ag3
aa(lp2826
I1016
aI56
aI4
ag3
aa(lp2827
I1016
aI45
aI30
ag3
aa(lp2828
I1016
aI27
aI37
ag3
aa(lp2829
I1016
aI14
aI107
ag3
aa(lp2830
I1016
aI10
aI110
ag3
aa(lp2831
I1016
aI6
aI116
ag3
aa(lp2832
I1016
aI3
aI174
ag3
aa(lp2833
I1017
aI44
aI0
ag3
aa(lp2834
I1017
aI23
aI2
ag3
aa(lp2835
I1017
aI56
aI5
ag3
aa(lp2836
I1017
aI21
aI17
ag3
aa(lp2837
I1017
aI19
aI22
ag3
aa(lp2838
I1017
aI52
aI25
ag3
aa(lp2839
I1017
aI55
aI25
ag3
aa(lp2840
I1017
aI32
aI29
ag3
aa(lp2841
I1017
aI45
aI31
ag3
aa(lp2842
I1017
aI27
aI38
ag3
aa(lp2843
I1017
aI37
aI38
ag3
aa(lp2844
I1017
aI46
aI55
ag1037
aa(lp2845
I1017
aI20
aI75
ag3
aa(lp2846
I1017
aI18
aI78
ag3
aa(lp2847
I1017
aI12
aI99
ag1037
aa(lp2848
I1017
aI14
aI108
ag3
aa(lp2849
I1017
aI9
aI111
ag3
aa(lp2850
I1017
aI1
aI149
ag3
aa(lp2851
I1017
aI3
aI175
ag3
aa(lp2852
I1018
aI23
aI3
ag3
aa(lp2853
I1018
aI37
aI39
ag3
aa(lp2854
I1018
aI10
aI111
ag3
aa(lp2855
I1018
aI9
aI112
ag3
aa(lp2856
I1018
aI2
aI113
ag3
aa(lp2857
I1018
aI6
aI117
ag3
aa(lp2858
I1019
aI52
aI26
ag3
aa(lp2859
I1019
aI39
aI28
ag3
aa(lp2860
I1019
aI11
aI88
ag3
aa(lp2861
I1019
aI1
aI150
ag3
aa(lp2862
I1020
aI56
aI6
ag3
aa(lp2863
I1020
aI30
aI18
ag3
aa(lp2864
I1020
aI55
aI26
ag3
aa(lp2865
I1020
aI27
aI39
ag3
aa(lp2866
I1020
aI9
aI113
ag3
aa(lp2867
I1020
aI2
aI114
ag3
aa(lp2868
I1020
aI8
aI136
ag3
aa(lp2869
I1020
aI3
aI176
ag3
aa(lp2870
I1021
aI34
aI0
ag3
aa(lp2871
I1021
aI56
aI7
ag3
aa(lp2872
I1021
aI21
aI18
ag3
aa(lp2873
I1021
aI30
aI19
ag3
aa(lp2874
I1021
aI40
aI22
ag3
aa(lp2875
I1021
aI19
aI23
ag3
aa(lp2876
I1021
aI57
aI44
ag3
aa(lp2877
I1021
aI7
aI72
ag3
aa(lp2878
I1021
aI11
aI89
ag3
aa(lp2879
I1021
aI10
aI112
ag3
aa(lp2880
I1021
aI9
aI114
ag3
aa(lp2881
I1021
aI2
aI115
ag3
aa(lp2882
I1021
aI8
aI137
ag3
aa(lp2883
I1021
aI1
aI151
ag3
aa(lp2884
I1022
aI12
aI100
ag1037
aa(lp2885
I1033
aI23
aI4
ag3
aa(lp2886
I1033
aI56
aI8
ag3
aa(lp2887
I1033
aI45
aI32
ag3
aa(lp2888
I1033
aI9
aI115
ag3
aa(lp2889
I1033
aI2
aI116
ag3
aa(lp2890
I1033
aI6
aI118
ag3
aa(lp2891
I1033
aI3
aI177
ag3
aa(lp2892
I1034
aI40
aI23
ag3
aa(lp2893
I1034
aI29
aI33
ag3
aa(lp2894
I1035
aI5
aI84
ag3
aa(lp2895
I1037
aI34
aI1
ag3
aa(lp2896
I1037
aI31
aI23
ag3
aa(lp2897
I1037
aI45
aI33
ag3
aa(lp2898
I1037
aI18
aI79
ag3
aa(lp2899
I1037
aI14
aI109
ag3
aa(lp2900
I1037
aI10
aI113
ag3
aa(lp2901
I1037
aI2
aI117
ag3
aa(lp2902
I1037
aI6
aI119
ag3
aa(lp2903
I1037
aI3
aI178
ag3
aa(lp2904
I1038
aI15
aI47
ag3
aa(lp2905
I1038
aI10
aI114
ag3
aa(lp2906
I1038
aI6
aI120
ag3
aa(lp2907
I1042
aI52
aI27
ag3
aa(lp2908
I1042
aI24
aI29
ag3
aa(lp2909
I1042
aI1
aI152
ag3
aa(lp2910
I1043
aI41
aI30
ag3
aa(lp2911
I1043
aI45
aI34
ag3
aa(lp2912
I1043
aI27
aI40
ag3
aa(lp2913
I1043
aI18
aI80
ag3
aa(lp2914
I1043
aI9
aI116
ag3
aa(lp2915
I1043
aI1
aI153
ag3
aa(lp2916
I1044
aI26
aI0
ag3
aa(lp2917
I1044
aI31
aI24
ag3
aa(lp2918
I1044
aI33
aI27
ag3
aa(lp2919
I1044
aI32
aI30
ag3
aa(lp2920
I1044
aI6
aI121
ag3
aa(lp2921
I1045
aI15
aI48
ag3
aa(lp2922
I1045
aI12
aI101
ag1037
aa(lp2923
I1045
aI9
aI117
ag3
aa(lp2924
I1046
aI45
aI35
ag3
aa(lp2925
I1046
aI5
aI85
ag3
aa(lp2926
I1046
aI12
aI102
ag1037
aa(lp2927
I1046
aI6
aI122
ag3
aa(lp2928
I1046
aI1
aI154
ag3
aa(lp2929
I1046
aI3
aI179
ag3
aa(lp2930
I1057
aI21
aI19
ag3
aa(lp2931
I1057
aI19
aI24
ag3
aa(lp2932
I1057
aI45
aI36
ag3
aa(lp2933
I1057
aI7
aI73
ag3
aa(lp2934
I1057
aI20
aI76
ag3
aa(lp2935
I1057
aI14
aI110
ag3
aa(lp2936
I1057
aI10
aI115
ag3
aa(lp2937
I1057
aI2
aI118
ag3
aa(lp2938
I1057
aI1
aI155
ag3
aa(lp2939
I1057
aI3
aI180
ag3
aa(lp2940
I1058
aI34
aI2
ag3
aa(lp2941
I1058
aI41
aI31
ag3
aa(lp2942
I1058
aI29
aI34
ag3
aa(lp2943
I1058
aI18
aI81
ag3
aa(lp2944
I1058
aI9
aI118
ag3
aa(lp2945
I1058
aI6
aI123
ag3
aa(lp2946
I1059
aI21
aI20
ag3
aa(lp2947
I1059
aI45
aI37
ag3
aa(lp2948
I1059
aI18
aI82
ag3
aa(lp2949
I1059
aI3
aI181
ag3
aa(lp2950
I1060
aI31
aI25
ag3
aa(lp2951
I1060
aI37
aI40
ag3
aa(lp2952
I1060
aI43
aI43
ag3
aa(lp2953
I1060
aI18
aI83
ag3
aa(lp2954
I1060
aI2
aI119
ag3
aa(lp2955
I1060
aI1
aI156
ag3
aa(lp2956
I1060
aI3
aI182
ag3
aa(lp2957
I1061
aI56
aI9
ag3
aa(lp2958
I1061
aI30
aI20
ag3
aa(lp2959
I1061
aI21
aI21
ag3
aa(lp2960
I1061
aI40
aI24
ag3
aa(lp2961
I1061
aI19
aI25
ag3
aa(lp2962
I1061
aI45
aI38
ag3
aa(lp2963
I1061
aI15
aI49
ag1037
aa(lp2964
I1061
aI4
aI82
ag3
aa(lp2965
I1061
aI18
aI84
ag3
aa(lp2966
I1061
aI11
aI90
ag3
aa(lp2967
I1061
aI14
aI111
ag3
aa(lp2968
I1061
aI10
aI116
ag3
aa(lp2969
I1061
aI9
aI119
ag3
aa(lp2970
I1061
aI3
aI183
ag3
aa(lp2971
I1062
aI15
aI50
ag1037
aa(lp2972
I1063
aI26
aI1
ag3
aa(lp2973
I1063
aI21
aI22
ag3
aa(lp2974
I1063
aI43
aI44
ag3
aa(lp2975
I1063
aI18
aI85
ag3
aa(lp2976
I1063
aI5
aI86
ag3
aa(lp2977
I1063
aI1
aI157
ag3
aa(lp2978
I1064
aI17
aI0
ag3
aa(lp2979
I1064
aI23
aI5
ag3
aa(lp2980
I1064
aI21
aI23
ag3
aa(lp2981
I1064
aI33
aI28
ag3
aa(lp2982
I1064
aI7
aI74
ag3
aa(lp2983
I1064
aI14
aI112
ag3
aa(lp2984
I1064
aI10
aI117
ag3
aa(lp2985
I1064
aI2
aI120
ag3
aa(lp2986
I1064
aI9
aI120
ag3
aa(lp2987
I1064
aI3
aI184
ag3
aa(lp2988
I1065
aI44
aI1
ag3
aa(lp2989
I1065
aI56
aI10
ag3
aa(lp2990
I1065
aI21
aI24
ag3
aa(lp2991
I1065
aI19
aI26
ag3
aa(lp2992
I1065
aI32
aI31
ag3
aa(lp2993
I1065
aI41
aI32
ag3
aa(lp2994
I1065
aI37
aI41
ag3
aa(lp2995
I1065
aI57
aI45
ag3
aa(lp2996
I1065
aI20
aI77
ag3
aa(lp2997
I1065
aI18
aI86
ag3
aa(lp2998
I1065
aI14
aI113
ag3
aa(lp2999
I1065
aI10
aI118
ag3
aa(lp3000
I1065
aI2
aI121
ag3
aa(lp3001
I1065
aI9
aI121
ag3
aa(lp3002
I1065
aI1
aI158
ag3
aa(lp3003
I1065
aI3
aI185
ag3
aa(lp3004
I1066
aI14
aI114
ag3
aa(lp3005
I1066
aI10
aI119
ag3
aa(lp3006
I1066
aI9
aI122
ag3
aa(lp3007
I1066
aI3
aI186
ag3
aa(lp3008
I1067
aI26
aI2
ag3
aa(lp3009
I1067
aI33
aI29
ag3
aa(lp3010
I1067
aI3
aI187
ag3
aa(lp3011
I1068
aI17
aI1
ag3
aa(lp3012
I1068
aI30
aI21
ag3
aa(lp3013
I1068
aI31
aI26
ag3
aa(lp3014
I1068
aI51
aI31
ag3
aa(lp3015
I1068
aI32
aI32
ag3
aa(lp3016
I1068
aI45
aI39
ag3
aa(lp3017
I1068
aI7
aI75
ag3
aa(lp3018
I1068
aI14
aI115
ag3
aa(lp3019
I1068
aI2
aI122
ag3
aa(lp3020
I1068
aI9
aI123
ag3
aa(lp3021
I1068
aI3
aI188
ag3
aa(lp3022
I1069
aI17
aI2
ag3
aa(lp3023
I1069
aI56
aI11
ag3
aa(lp3024
I1069
aI48
aI20
ag3
aa(lp3025
I1069
aI19
aI27
ag3
aa(lp3026
I1069
aI33
aI30
ag3
aa(lp3027
I1069
aI32
aI33
ag3
aa(lp3028
I1069
aI45
aI40
ag3
aa(lp3029
I1069
aI2
aI123
ag3
aa(lp3030
I1069
aI1
aI159
ag3
aa(lp3031
I1069
aI3
aI189
ag3
aa(lp3032
I1070
aI18
aI87
ag3
aa(lp3033
I1070
aI11
aI91
ag3
aa(lp3034
I1070
aI2
aI124
ag3
aa(lp3035
I1070
aI6
aI124
ag3
aa(lp3036
I1071
aI21
aI25
ag3
aa(lp3037
I1071
aI45
aI41
ag3
aa(lp3038
I1071
aI18
aI88
ag3
aa(lp3039
I1071
aI14
aI116
ag3
aa(lp3040
I1071
aI1
aI160
ag3
aa(lp3041
I1072
aI31
aI27
ag3
aa(lp3042
I1072
aI52
aI28
ag3
aa(lp3043
I1072
aI33
aI31
ag3
aa(lp3044
I1072
aI51
aI32
ag3
aa(lp3045
I1072
aI41
aI33
ag3
aa(lp3046
I1072
aI15
aI51
ag1037
aa(lp3047
I1072
aI7
aI76
ag3
aa(lp3048
I1072
aI18
aI89
ag3
aa(lp3049
I1072
aI10
aI120
ag3
aa(lp3050
I1072
aI6
aI125
ag3
aa(lp3051
I1072
aI3
aI190
ag3
aa(lp3052
I1073
aI23
aI6
ag3
aa(lp3053
I1073
aI56
aI12
ag3
aa(lp3054
I1073
aI19
aI28
ag3
aa(lp3055
I1073
aI31
aI28
ag3
aa(lp3056
I1073
aI33
aI32
ag3
aa(lp3057
I1073
aI32
aI34
ag3
aa(lp3058
I1073
aI41
aI34
ag3
aa(lp3059
I1073
aI43
aI45
ag3
aa(lp3060
I1073
aI18
aI90
ag3
aa(lp3061
I1073
aI9
aI124
ag3
aa(lp3062
I1073
aI2
aI125
ag3
aa(lp3063
I1073
aI6
aI126
ag3
aa(lp3064
I1073
aI1
aI161
ag3
aa(lp3065
I1073
aI3
aI191
ag3
aa(lp3066
I1074
aI2
aI126
ag3
aa(lp3067
I1074
aI6
aI127
ag3
aa(lp3068
I1074
aI3
aI192
ag3
aa(lp3069
I1075
aI34
aI3
ag3
aa(lp3070
I1075
aI53
aI25
ag3
aa(lp3071
I1075
aI55
aI27
ag3
aa(lp3072
I1075
aI5
aI87
ag3
aa(lp3073
I1076
aI17
aI3
ag3
aa(lp3074
I1076
aI23
aI7
ag3
aa(lp3075
I1076
aI53
aI26
ag3
aa(lp3076
I1076
aI19
aI29
ag3
aa(lp3077
I1076
aI39
aI29
ag3
aa(lp3078
I1076
aI29
aI35
ag3
aa(lp3079
I1076
aI16
aI70
ag3
aa(lp3080
I1076
aI11
aI92
ag3
aa(lp3081
I1076
aI9
aI125
ag3
aa(lp3082
I1076
aI2
aI127
ag3
aa(lp3083
I1077
aI44
aI2
ag3
aa(lp3084
I1077
aI17
aI4
ag3
aa(lp3085
I1077
aI23
aI8
ag3
aa(lp3086
I1077
aI35
aI16
ag3
aa(lp3087
I1077
aI49
aI19
ag3
aa(lp3088
I1077
aI30
aI22
ag3
aa(lp3089
I1077
aI39
aI30
ag3
aa(lp3090
I1077
aI29
aI36
ag3
aa(lp3091
I1077
aI16
aI71
ag3
aa(lp3092
I1077
aI11
aI93
ag3
aa(lp3093
I1077
aI12
aI103
ag1037
aa(lp3094
I1077
aI10
aI121
ag3
aa(lp3095
I1077
aI9
aI126
ag3
aa(lp3096
I1077
aI1
aI162
ag3
aa(lp3097
I1078
aI35
aI17
ag3
aa(lp3098
I1078
aI49
aI20
ag3
aa(lp3099
I1078
aI21
aI26
ag3
aa(lp3100
I1078
aI55
aI28
ag3
aa(lp3101
I1078
aI24
aI30
ag3
aa(lp3102
I1078
aI29
aI37
ag3
aa(lp3103
I1078
aI11
aI94
ag3
aa(lp3104
I1078
aI10
aI122
ag3
aa(lp3105
I1078
aI2
aI128
ag3
aa(lp3106
I1079
aI21
aI27
ag3
aa(lp3107
I1080
aI17
aI5
ag3
aa(lp3108
I1080
aI56
aI13
ag3
aa(lp3109
I1080
aI30
aI23
ag3
aa(lp3110
I1080
aI21
aI28
ag3
aa(lp3111
I1080
aI41
aI35
ag3
aa(lp3112
I1080
aI15
aI52
ag1037
aa(lp3113
I1080
aI12
aI104
ag1037
aa(lp3114
I1081
aI23
aI9
ag3
aa(lp3115
I1081
aI21
aI29
ag3
aa(lp3116
I1081
aI19
aI30
ag3
aa(lp3117
I1081
aI51
aI33
ag3
aa(lp3118
I1081
aI29
aI38
ag3
aa(lp3119
I1081
aI37
aI42
ag3
aa(lp3120
I1081
aI57
aI46
ag3
aa(lp3121
I1081
aI10
aI123
ag3
aa(lp3122
I1081
aI9
aI127
ag3
aa(lp3123
I1081
aI1
aI163
ag3
aa(lp3124
I1081
aI3
aI193
ag3
aa(lp3125
I1082
aI23
aI10
ag3
aa(lp3126
I1082
aI2
aI129
ag3
aa(lp3127
I1082
aI1
aI164
ag3
aa(lp3128
I1083
aI21
aI30
ag3
aa(lp3129
I1083
aI45
aI42
ag3
aa(lp3130
I1083
aI43
aI46
ag3
aa(lp3131
I1083
aI18
aI91
ag1037
aa(lp3132
I1083
aI6
aI128
ag3
aa(lp3133
I1083
aI9
aI128
ag3
aa(lp3134
I1083
aI2
aI130
ag3
aa(lp3135
I1083
aI1
aI165
ag3
aa(lp3136
I1084
aI18
aI92
ag1037
aa(lp3137
I1084
aI11
aI95
ag3
aa(lp3138
I1084
aI14
aI117
ag3
aa(lp3139
I1084
aI2
aI131
ag3
aa(lp3140
I1084
aI8
aI138
ag3
aa(lp3141
I1084
aI3
aI194
ag3
aa(lp3142
I1085
aI23
aI11
ag3
aa(lp3143
I1085
aI55
aI29
ag3
aa(lp3144
I1085
aI19
aI31
ag3
aa(lp3145
I1085
aI21
aI31
ag3
aa(lp3146
I1085
aI32
aI35
ag3
aa(lp3147
I1085
aI11
aI96
ag3
aa(lp3148
I1085
aI6
aI129
ag3
aa(lp3149
I1085
aI2
aI132
ag3
aa(lp3150
I1085
aI8
aI139
ag3
aa(lp3151
I1085
aI1
aI166
ag3
aa(lp3152
I1085
aI3
aI195
ag3
aa(lp3153
I1086
aI34
aI4
ag3
aa(lp3154
I1086
aI5
aI88
ag3
aa(lp3155
I1086
aI18
aI93
ag1037
aa(lp3156
I1086
aI6
aI130
ag3
aa(lp3157
I1089
aI9
aI129
ag3
aa(lp3158
I1090
aI6
aI131
ag3
aa(lp3159
I1090
aI2
aI133
ag3
aa(lp3160
I1090
aI8
aI140
ag3
aa(lp3161
I1091
aI21
aI32
ag3
aa(lp3162
I1091
aI18
aI94
ag1037
aa(lp3163
I1091
aI2
aI134
ag3
aa(lp3164
I1091
aI3
aI196
ag3
aa(lp3165
I1092
aI34
aI5
ag3
aa(lp3166
I1092
aI16
aI72
ag3
aa(lp3167
I1092
aI14
aI118
ag3
aa(lp3168
I1092
aI1
aI167
ag3
aa(lp3169
I1093
aI44
aI3
ag3
aa(lp3170
I1093
aI23
aI12
ag3
aa(lp3171
I1093
aI50
aI17
ag3
aa(lp3172
I1093
aI30
aI24
ag3
aa(lp3173
I1093
aI31
aI29
ag3
aa(lp3174
I1093
aI19
aI32
ag3
aa(lp3175
I1093
aI21
aI33
ag3
aa(lp3176
I1093
aI37
aI43
ag3
aa(lp3177
I1093
aI7
aI77
ag3
aa(lp3178
I1093
aI9
aI130
ag3
aa(lp3179
I1093
aI2
aI135
ag3
aa(lp3180
I1093
aI1
aI168
ag3
aa(lp3181
I1093
aI3
aI197
ag3
aa(lp3182
I1094
aI35
aI18
ag3
aa(lp3183
I1094
aI24
aI31
ag3
aa(lp3184
I1094
aI18
aI95
ag1037
aa(lp3185
I1095
aI21
aI34
ag3
aa(lp3186
I1095
aI32
aI36
ag3
aa(lp3187
I1095
aI41
aI36
ag3
aa(lp3188
I1095
aI45
aI43
ag3
aa(lp3189
I1095
aI43
aI47
ag3
aa(lp3190
I1095
aI20
aI78
ag3
aa(lp3191
I1095
aI3
aI198
ag3
aa(lp3192
I1096
aI34
aI6
ag3
aa(lp3193
I1096
aI48
aI21
ag3
aa(lp3194
I1096
aI41
aI37
ag3
aa(lp3195
I1096
aI15
aI53
ag1037
aa(lp3196
I1096
aI16
aI73
ag3
aa(lp3197
I1096
aI18
aI96
ag1037
aa(lp3198
I1096
aI14
aI119
ag3
aa(lp3199
I1096
aI9
aI131
ag3
aa(lp3200
I1096
aI6
aI132
ag3
aa(lp3201
I1096
aI8
aI141
ag3
aa(lp3202
I1096
aI3
aI199
ag3
aa(lp3203
I1097
aI44
aI4
ag3
aa(lp3204
I1097
aI50
aI18
ag3
aa(lp3205
I1097
aI40
aI25
ag3
aa(lp3206
I1097
aI19
aI33
ag3
aa(lp3207
I1097
aI21
aI35
ag3
aa(lp3208
I1097
aI45
aI44
ag3
aa(lp3209
I1097
aI14
aI120
ag3
aa(lp3210
I1097
aI10
aI124
ag3
aa(lp3211
I1097
aI9
aI132
ag3
aa(lp3212
I1097
aI2
aI136
ag3
aa(lp3213
I1097
aI1
aI169
ag3
aa(lp3214
I1097
aI3
aI200
ag3
aa(lp3215
I1098
aI41
aI38
ag3
aa(lp3216
I1098
aI57
aI47
ag3
aa(lp3217
I1098
aI18
aI97
ag1037
aa(lp3218
I1098
aI6
aI133
ag3
aa(lp3219
I1099
aI26
aI3
ag3
aa(lp3220
I1099
aI21
aI36
ag3
aa(lp3221
I1099
aI32
aI37
ag3
aa(lp3222
I1099
aI43
aI48
ag3
aa(lp3223
I1099
aI18
aI98
ag1037
aa(lp3224
I1099
aI14
aI121
ag3
aa(lp3225
I1099
aI9
aI133
ag3
aa(lp3226
I1099
aI2
aI137
ag3
aa(lp3227
I1099
aI1
aI170
ag3
aa(lp3228
I1099
aI3
aI201
ag3
aa(lp3229
I1100
aI17
aI6
ag3
aa(lp3230
I1100
aI34
aI7
ag3
aa(lp3231
I1100
aI31
aI30
ag3
aa(lp3232
I1100
aI21
aI37
ag3
aa(lp3233
I1100
aI45
aI45
ag3
aa(lp3234
I1100
aI6
aI134
ag3
aa(lp3235
I1100
aI9
aI134
ag3
aa(lp3236
I1100
aI3
aI202
ag3
aa(lp3237
I1101
aI34
aI8
ag3
aa(lp3238
I1101
aI19
aI34
ag3
aa(lp3239
I1101
aI16
aI74
ag3
aa(lp3240
I1101
aI7
aI78
ag3
aa(lp3241
I1101
aI5
aI89
ag3
aa(lp3242
I1101
aI14
aI122
ag3
aa(lp3243
I1101
aI9
aI135
ag3
aa(lp3244
I1101
aI2
aI138
ag3
aa(lp3245
I1101
aI8
aI142
ag3
aa(lp3246
I1101
aI1
aI171
ag3
aa(lp3247
I1102
aI57
aI48
ag3
aa(lp3248
I1102
aI46
aI56
ag1037
aa(lp3249
I1102
aI5
aI90
ag3
aa(lp3250
I1113
aI39
aI31
ag3
aa(lp3251
I1113
aI21
aI38
ag3
aa(lp3252
I1113
aI10
aI125
ag3
aa(lp3253
I1113
aI6
aI135
ag3
aa(lp3254
I1113
aI2
aI139
ag3
aa(lp3255
I1114
aI10
aI126
ag3
aa(lp3256
I1114
aI6
aI136
ag3
aa(lp3257
I1114
aI2
aI140
ag3
aa(lp3258
I1114
aI1
aI172
ag3
aa(lp3259
I1114
aI3
aI203
ag3
aa(lp3260
I1115
aI45
aI46
ag3
aa(lp3261
I1115
aI9
aI136
ag3
aa(lp3262
I1115
aI3
aI204
ag3
aa(lp3263
I1116
aI17
aI7
ag3
aa(lp3264
I1116
aI55
aI30
ag3
aa(lp3265
I1116
aI21
aI39
ag3
aa(lp3266
I1116
aI43
aI49
ag3
aa(lp3267
I1116
aI16
aI75
ag3
aa(lp3268
I1116
aI5
aI91
ag3
aa(lp3269
I1116
aI14
aI123
ag3
aa(lp3270
I1116
aI10
aI127
ag3
aa(lp3271
I1116
aI2
aI141
ag3
aa(lp3272
I1117
aI34
aI9
ag3
aa(lp3273
I1117
aI56
aI14
ag3
aa(lp3274
I1117
aI40
aI26
ag3
aa(lp3275
I1117
aI19
aI35
ag3
aa(lp3276
I1117
aI32
aI38
ag3
aa(lp3277
I1117
aI21
aI40
ag3
aa(lp3278
I1117
aI45
aI47
ag3
aa(lp3279
I1117
aI16
aI76
ag3
aa(lp3280
I1117
aI7
aI79
ag3
aa(lp3281
I1117
aI5
aI92
ag3
aa(lp3282
I1117
aI14
aI124
ag3
aa(lp3283
I1117
aI3
aI205
ag3
aa(lp3284
I1118
aI29
aI39
ag3
aa(lp3285
I1118
aI18
aI99
ag1037
aa(lp3286
I1118
aI10
aI128
ag3
aa(lp3287
I1118
aI9
aI137
ag3
aa(lp3288
I1119
aI26
aI4
ag3
aa(lp3289
I1119
aI32
aI39
ag3
aa(lp3290
I1119
aI43
aI50
ag1037
aa(lp3291
I1120
aI34
aI10
ag3
aa(lp3292
I1120
aI52
aI29
ag3
aa(lp3293
I1120
aI12
aI105
ag1037
aa(lp3294
I1120
aI3
aI206
ag3
aa(lp3295
I1121
aI23
aI13
ag3
aa(lp3296
I1121
aI56
aI15
ag3
aa(lp3297
I1121
aI48
aI22
ag3
aa(lp3298
I1121
aI54
aI27
ag3
aa(lp3299
I1121
aI31
aI31
ag3
aa(lp3300
I1121
aI19
aI36
ag3
aa(lp3301
I1121
aI32
aI40
ag3
aa(lp3302
I1121
aI21
aI41
ag3
aa(lp3303
I1121
aI37
aI44
ag3
aa(lp3304
I1121
aI4
aI83
ag3
aa(lp3305
I1121
aI5
aI93
ag3
aa(lp3306
I1121
aI18
aI100
ag1037
aa(lp3307
I1121
aI14
aI125
ag3
aa(lp3308
I1121
aI6
aI137
ag3
aa(lp3309
I1121
aI2
aI142
ag3
aa(lp3310
I1121
aI8
aI143
ag3
aa(lp3311
I1121
aI1
aI173
ag3
aa(lp3312
I1121
aI3
aI207
ag3
aa(lp3313
I1122
aI4
aI84
ag3
aa(lp3314
I1122
aI12
aI106
ag1037
aa(lp3315
I1125
aI34
aI11
ag3
aa(lp3316
I1125
aI35
aI19
ag3
aa(lp3317
I1125
aI40
aI27
ag3
aa(lp3318
I1125
aI39
aI32
ag3
aa(lp3319
I1125
aI32
aI41
ag3
aa(lp3320
I1125
aI14
aI126
ag3
aa(lp3321
I1125
aI10
aI129
ag3
aa(lp3322
I1125
aI1
aI174
ag3
aa(lp3323
I1125
aI3
aI208
ag3
aa(lp3324
I1129
aI45
aI48
ag3
aa(lp3325
I1129
aI12
aI107
ag1037
aa(lp3326
I1129
aI9
aI138
ag3
aa(lp3327
I1129
aI1
aI175
ag3
aa(lp3328
I1129
aI3
aI209
ag3
aa(lp3329
I1130
aI34
aI12
ag3
aa(lp3330
I1130
aI51
aI34
ag3
aa(lp3331
I1130
aI41
aI39
ag3
aa(lp3332
I1130
aI14
aI127
ag3
aa(lp3333
I1131
aI26
aI5
ag3
aa(lp3334
I1131
aI53
aI27
ag3
aa(lp3335
I1131
aI21
aI42
ag3
aa(lp3336
I1131
aI10
aI130
ag3
aa(lp3337
I1131
aI1
aI176
ag3
aa(lp3338
I1132
aI44
aI5
ag3
aa(lp3339
I1132
aI51
aI35
ag3
aa(lp3340
I1132
aI16
aI77
ag3
aa(lp3341
I1132
aI12
aI108
ag1037
aa(lp3342
I1132
aI2
aI143
ag3
aa(lp3343
I1132
aI8
aI144
ag3
aa(lp3344
I1135
aI31
aI32
ag3
aa(lp3345
I1135
aI21
aI43
ag3
aa(lp3346
I1135
aI5
aI94
ag3
aa(lp3347
I1135
aI2
aI144
ag3
aa(lp3348
I1135
aI1
aI177
ag3
aa(lp3349
I1136
aI17
aI8
ag3
aa(lp3350
I1136
aI34
aI13
ag3
aa(lp3351
I1136
aI52
aI30
ag3
aa(lp3352
I1136
aI51
aI36
ag3
aa(lp3353
I1136
aI4
aI85
ag3
aa(lp3354
I1136
aI6
aI138
ag3
aa(lp3355
I1136
aI9
aI139
ag3
aa(lp3356
I1137
aI17
aI9
ag3
aa(lp3357
I1137
aI30
aI25
ag3
aa(lp3358
I1137
aI40
aI28
ag3
aa(lp3359
I1137
aI51
aI37
ag3
aa(lp3360
I1137
aI21
aI44
ag3
aa(lp3361
I1137
aI15
aI54
ag1037
aa(lp3362
I1137
aI4
aI86
ag3
aa(lp3363
I1137
aI5
aI95
ag3
aa(lp3364
I1137
aI10
aI131
ag3
aa(lp3365
I1137
aI2
aI145
ag3
aa(lp3366
I1137
aI8
aI145
ag3
aa(lp3367
I1137
aI1
aI178
ag3
aa(lp3368
I1138
aI24
aI32
ag3
aa(lp3369
I1138
aI32
aI42
ag3
aa(lp3370
I1138
aI6
aI139
ag3
aa(lp3371
I1138
aI8
aI146
ag3
aa(lp3372
I1139
aI26
aI6
ag3
aa(lp3373
I1139
aI32
aI43
ag3
aa(lp3374
I1139
aI45
aI49
ag3
aa(lp3375
I1139
aI43
aI51
ag1037
aa(lp3376
I1139
aI18
aI101
ag1037
aa(lp3377
I1139
aI6
aI140
ag3
aa(lp3378
I1139
aI2
aI146
ag3
aa(lp3379
I1139
aI1
aI179
ag3
aa(lp3380
I1139
aI3
aI210
ag3
aa(lp3381
I1140
aI31
aI33
ag3
aa(lp3382
I1140
aI37
aI45
ag3
aa(lp3383
I1140
aI18
aI102
ag1037
aa(lp3384
I1140
aI14
aI128
ag3
aa(lp3385
I1141
aI44
aI6
ag3
aa(lp3386
I1141
aI23
aI14
ag3
aa(lp3387
I1141
aI40
aI29
ag3
aa(lp3388
I1141
aI51
aI38
ag3
aa(lp3389
I1141
aI32
aI44
ag3
aa(lp3390
I1141
aI14
aI129
ag3
aa(lp3391
I1141
aI10
aI132
ag3
aa(lp3392
I1141
aI9
aI140
ag3
aa(lp3393
I1141
aI2
aI147
ag3
aa(lp3394
I1141
aI1
aI180
ag3
aa(lp3395
I1141
aI3
aI211
ag3
aa(lp3396
I1142
aI23
aI15
ag3
aa(lp3397
I1142
aI24
aI33
ag3
aa(lp3398
I1142
aI16
aI78
ag3
aa(lp3399
I1142
aI18
aI103
ag1037
aa(lp3400
I1142
aI10
aI133
ag3
aa(lp3401
I1142
aI6
aI141
ag3
aa(lp3402
I1143
aI26
aI7
ag3
aa(lp3403
I1143
aI32
aI45
ag3
aa(lp3404
I1143
aI20
aI79
ag3
aa(lp3405
I1143
aI5
aI96
ag3
aa(lp3406
I1143
aI9
aI141
ag3
aa(lp3407
I1143
aI2
aI148
ag3
aa(lp3408
I1143
aI3
aI212
ag3
aa(lp3409
I1144
aI33
aI33
ag3
aa(lp3410
I1144
aI16
aI79
ag3
aa(lp3411
I1144
aI1
aI181
ag3
aa(lp3412
I1145
aI32
aI46
ag3
aa(lp3413
I1145
aI57
aI49
ag1037
aa(lp3414
I1145
aI45
aI50
ag3
aa(lp3415
I1145
aI11
aI97
ag3
aa(lp3416
I1145
aI10
aI134
ag3
aa(lp3417
I1145
aI6
aI142
ag3
aa(lp3418
I1145
aI9
aI142
ag3
aa(lp3419
I1145
aI2
aI149
ag3
aa(lp3420
I1145
aI3
aI213
ag3
aa(lp3421
I1150
aI5
aI97
ag3
aa(lp3422
I1155
aI26
aI8
ag3
aa(lp3423
I1155
aI45
aI51
ag3
aa(lp3424
I1155
aI7
aI80
ag3
aa(lp3425
I1155
aI1
aI182
ag3
aa(lp3426
I1156
aI31
aI34
ag3
aa(lp3427
I1156
aI32
aI47
ag3
aa(lp3428
I1156
aI16
aI80
ag3
aa(lp3429
I1156
aI11
aI98
ag3
aa(lp3430
I1156
aI3
aI214
ag3
aa(lp3431
I1157
aI44
aI7
ag3
aa(lp3432
I1157
aI17
aI10
ag3
aa(lp3433
I1157
aI56
aI16
ag3
aa(lp3434
I1157
aI54
aI28
ag3
aa(lp3435
I1157
aI40
aI30
ag3
aa(lp3436
I1157
aI39
aI33
ag3
aa(lp3437
I1157
aI19
aI37
ag3
aa(lp3438
I1157
aI51
aI39
ag3
aa(lp3439
I1157
aI41
aI40
ag3
aa(lp3440
I1157
aI21
aI45
ag3
aa(lp3441
I1157
aI45
aI52
ag3
aa(lp3442
I1157
aI7
aI81
ag3
aa(lp3443
I1157
aI16
aI81
ag3
aa(lp3444
I1157
aI11
aI99
ag3
aa(lp3445
I1157
aI12
aI109
ag1037
aa(lp3446
I1157
aI10
aI135
ag3
aa(lp3447
I1157
aI9
aI143
ag3
aa(lp3448
I1157
aI8
aI147
ag3
aa(lp3449
I1157
aI2
aI150
ag3
aa(lp3450
I1157
aI1
aI183
ag3
aa(lp3451
I1157
aI3
aI215
ag3
aa(lp3452
I1158
aI17
aI11
ag3
aa(lp3453
I1158
aI40
aI31
ag3
aa(lp3454
I1158
aI12
aI110
ag1037
aa(lp3455
I1158
aI10
aI136
ag3
aa(lp3456
I1159
aI41
aI41
ag3
aa(lp3457
I1159
aI21
aI46
ag3
aa(lp3458
I1159
aI5
aI98
ag3
aa(lp3459
I1160
aI17
aI12
ag3
aa(lp3460
I1160
aI21
aI47
ag3
aa(lp3461
I1160
aI11
aI100
ag3
aa(lp3462
I1160
aI9
aI144
ag3
aa(lp3463
I1160
aI2
aI151
ag3
aa(lp3464
I1161
aI34
aI14
ag3
aa(lp3465
I1161
aI56
aI17
ag3
aa(lp3466
I1161
aI35
aI20
ag3
aa(lp3467
I1161
aI21
aI48
ag3
aa(lp3468
I1161
aI4
aI87
ag3
aa(lp3469
I1161
aI10
aI137
ag3
aa(lp3470
I1161
aI9
aI145
ag3
aa(lp3471
I1161
aI2
aI152
ag3
aa(lp3472
I1161
aI1
aI184
ag3
aa(lp3473
I1161
aI3
aI216
ag3
aa(lp3474
I1162
aI44
aI8
ag3
aa(lp3475
I1162
aI30
aI26
ag3
aa(lp3476
I1162
aI4
aI88
ag1037
aa(lp3477
I1162
aI10
aI138
ag3
aa(lp3478
I1163
aI26
aI9
ag3
aa(lp3479
I1163
aI30
aI27
ag3
aa(lp3480
I1163
aI54
aI29
ag3
aa(lp3481
I1163
aI1
aI185
ag3
aa(lp3482
I1164
aI44
aI9
ag3
aa(lp3483
I1164
aI26
aI10
ag3
aa(lp3484
I1164
aI50
aI19
ag3
aa(lp3485
I1164
aI33
aI34
ag3
aa(lp3486
I1164
aI19
aI38
ag3
aa(lp3487
I1164
aI27
aI41
ag3
aa(lp3488
I1164
aI5
aI99
ag3
aa(lp3489
I1164
aI11
aI101
ag3
aa(lp3490
I1164
aI12
aI111
ag1037
aa(lp3491
I1164
aI10
aI139
ag3
aa(lp3492
I1164
aI2
aI153
ag3
aa(lp3493
I1164
aI3
aI217
ag3
aa(lp3494
I1165
aI34
aI15
ag3
aa(lp3495
I1165
aI47
aI17
ag3
aa(lp3496
I1165
aI56
aI18
ag3
aa(lp3497
I1165
aI54
aI30
ag3
aa(lp3498
I1165
aI19
aI39
ag3
aa(lp3499
I1165
aI41
aI42
ag3
aa(lp3500
I1165
aI37
aI46
ag3
aa(lp3501
I1165
aI15
aI55
ag1037
aa(lp3502
I1165
aI11
aI102
ag3
aa(lp3503
I1165
aI6
aI143
ag3
aa(lp3504
I1165
aI9
aI146
ag3
aa(lp3505
I1165
aI2
aI154
ag3
aa(lp3506
I1165
aI1
aI186
ag3
aa(lp3507
I1166
aI53
aI28
ag3
aa(lp3508
I1166
aI29
aI40
ag3
aa(lp3509
I1166
aI10
aI140
ag3
aa(lp3510
I1170
aI41
aI43
ag3
aa(lp3511
I1171
aI26
aI11
ag3
aa(lp3512
I1171
aI43
aI52
ag1037
aa(lp3513
I1171
aI45
aI53
ag3
aa(lp3514
I1171
aI20
aI80
ag3
aa(lp3515
I1171
aI18
aI104
ag1037
aa(lp3516
I1171
aI8
aI148
ag3
aa(lp3517
I1171
aI1
aI187
ag3
aa(lp3518
I1171
aI3
aI218
ag3
aa(lp3519
I1172
aI17
aI13
ag3
aa(lp3520
I1172
aI31
aI35
ag3
aa(lp3521
I1172
aI33
aI35
ag3
aa(lp3522
I1172
aI51
aI40
ag3
aa(lp3523
I1172
aI27
aI42
ag3
aa(lp3524
I1172
aI37
aI47
ag3
aa(lp3525
I1172
aI4
aI89
ag1037
aa(lp3526
I1172
aI11
aI103
ag3
aa(lp3527
I1172
aI14
aI130
ag3
aa(lp3528
I1172
aI10
aI141
ag3
aa(lp3529
I1172
aI6
aI144
ag3
aa(lp3530
I1172
aI9
aI147
ag3
aa(lp3531
I1172
aI3
aI219
ag3
aa(lp3532
I1173
aI40
aI32
ag3
aa(lp3533
I1173
aI19
aI40
ag3
aa(lp3534
I1173
aI27
aI43
ag3
aa(lp3535
I1173
aI32
aI48
ag3
aa(lp3536
I1173
aI37
aI48
ag3
aa(lp3537
I1173
aI20
aI81
ag3
aa(lp3538
I1173
aI12
aI112
ag1037
aa(lp3539
I1173
aI14
aI131
ag3
aa(lp3540
I1173
aI10
aI142
ag3
aa(lp3541
I1173
aI9
aI148
ag3
aa(lp3542
I1173
aI8
aI149
ag3
aa(lp3543
I1173
aI3
aI220
ag3
aa(lp3544
I1174
aI50
aI20
ag3
aa(lp3545
I1174
aI24
aI34
ag3
aa(lp3546
I1174
aI11
aI104
ag3
aa(lp3547
I1174
aI18
aI105
ag1037
aa(lp3548
I1175
aI18
aI106
ag1037
aa(lp3549
I1175
aI14
aI132
ag3
aa(lp3550
I1175
aI9
aI149
ag3
aa(lp3551
I1175
aI3
aI221
ag3
aa(lp3552
I1176
aI17
aI14
ag3
aa(lp3553
I1176
aI23
aI16
ag3
aa(lp3554
I1176
aI34
aI16
ag3
aa(lp3555
I1176
aI27
aI44
ag3
aa(lp3556
I1176
aI43
aI53
ag1037
aa(lp3557
I1176
aI10
aI143
ag1037
aa(lp3558
I1176
aI6
aI145
ag3
aa(lp3559
I1176
aI3
aI222
ag3
aa(lp3560
I1177
aI34
aI17
ag3
aa(lp3561
I1177
aI56
aI19
ag3
aa(lp3562
I1177
aI40
aI33
ag3
aa(lp3563
I1177
aI39
aI34
ag3
aa(lp3564
I1177
aI24
aI35
ag3
aa(lp3565
I1177
aI31
aI36
ag3
aa(lp3566
I1177
aI19
aI41
ag3
aa(lp3567
I1177
aI27
aI45
ag3
aa(lp3568
I1177
aI32
aI49
ag3
aa(lp3569
I1177
aI43
aI54
ag1037
aa(lp3570
I1177
aI7
aI82
ag3
aa(lp3571
I1177
aI4
aI90
ag1037
aa(lp3572
I1177
aI5
aI100
ag3
aa(lp3573
I1177
aI18
aI107
ag1037
aa(lp3574
I1177
aI12
aI113
ag1037
aa(lp3575
I1177
aI14
aI133
ag3
aa(lp3576
I1177
aI10
aI144
ag1037
aa(lp3577
I1177
aI6
aI146
ag3
aa(lp3578
I1177
aI8
aI150
ag3
aa(lp3579
I1177
aI9
aI150
ag3
aa(lp3580
I1177
aI2
aI155
ag3
aa(lp3581
I1177
aI3
aI223
ag3
aa(lp3582
I1178
aI24
aI36
ag3
aa(lp3583
I1178
aI29
aI41
ag3
aa(lp3584
I1178
aI16
aI82
ag3
aa(lp3585
I1178
aI7
aI83
ag3
aa(lp3586
I1178
aI6
aI147
ag3
aa(lp3587
I1178
aI3
aI224
ag3
aa(lp3588
I1179
aI30
aI28
ag3
aa(lp3589
I1179
aI32
aI50
ag3
aa(lp3590
I1179
aI45
aI54
ag3
aa(lp3591
I1179
aI20
aI82
ag3
aa(lp3592
I1179
aI18
aI108
ag1037
aa(lp3593
I1179
aI8
aI151
ag3
aa(lp3594
I1180
aI44
aI10
ag3
aa(lp3595
I1180
aI33
aI36
ag3
aa(lp3596
I1180
aI51
aI41
ag3
aa(lp3597
I1180
aI29
aI42
ag3
aa(lp3598
I1180
aI41
aI44
ag3
aa(lp3599
I1180
aI27
aI46
ag3
aa(lp3600
I1180
aI45
aI55
ag3
aa(lp3601
I1180
aI16
aI83
ag3
aa(lp3602
I1180
aI11
aI105
ag3
aa(lp3603
I1180
aI14
aI134
ag3
aa(lp3604
I1180
aI6
aI148
ag3
aa(lp3605
I1180
aI3
aI225
ag3
aa(lp3606
I1181
aI44
aI11
ag3
aa(lp3607
I1181
aI56
aI20
ag3
aa(lp3608
I1181
aI48
aI23
ag3
aa(lp3609
I1181
aI54
aI31
ag3
aa(lp3610
I1181
aI40
aI34
ag3
aa(lp3611
I1181
aI39
aI35
ag3
aa(lp3612
I1181
aI19
aI42
ag3
aa(lp3613
I1181
aI27
aI47
ag3
aa(lp3614
I1181
aI32
aI51
ag3
aa(lp3615
I1181
aI20
aI83
ag3
aa(lp3616
I1181
aI14
aI135
ag3
aa(lp3617
I1181
aI10
aI145
ag1037
aa(lp3618
I1181
aI6
aI149
ag3
aa(lp3619
I1181
aI8
aI152
ag3
aa(lp3620
I1181
aI2
aI156
ag3
aa(lp3621
I1181
aI1
aI188
ag3
aa(lp3622
I1181
aI3
aI226
ag3
aa(lp3623
I1182
aI24
aI37
ag3
aa(lp3624
I1182
aI10
aI146
ag1037
aa(lp3625
I1182
aI6
aI150
ag3
aa(lp3626
I1182
aI2
aI157
ag3
aa(lp3627
I1183
aI21
aI49
ag3
aa(lp3628
I1183
aI32
aI52
ag3
aa(lp3629
I1183
aI18
aI109
ag1037
aa(lp3630
I1183
aI10
aI147
ag1037
aa(lp3631
I1183
aI6
aI151
ag3
aa(lp3632
I1183
aI9
aI151
ag3
aa(lp3633
I1183
aI1
aI189
ag3
aa(lp3634
I1184
aI26
aI12
ag3
aa(lp3635
I1184
aI34
aI18
ag3
aa(lp3636
I1184
aI49
aI21
ag3
aa(lp3637
I1184
aI38
aI22
ag3
aa(lp3638
I1184
aI33
aI37
ag3
aa(lp3639
I1184
aI27
aI48
ag3
aa(lp3640
I1184
aI11
aI106
ag3
aa(lp3641
I1184
aI6
aI152
ag3
aa(lp3642
I1184
aI3
aI227
ag3
aa(lp3643
I1185
aI34
aI19
ag3
aa(lp3644
I1185
aI49
aI22
ag3
aa(lp3645
I1185
aI19
aI43
ag3
aa(lp3646
I1185
aI29
aI43
ag3
aa(lp3647
I1185
aI27
aI49
ag3
aa(lp3648
I1185
aI21
aI50
ag3
aa(lp3649
I1185
aI7
aI84
ag1037
aa(lp3650
I1185
aI4
aI91
ag1037
aa(lp3651
I1185
aI11
aI107
ag3
aa(lp3652
I1185
aI12
aI114
ag1037
aa(lp3653
I1185
aI10
aI148
ag1037
aa(lp3654
I1185
aI9
aI152
ag3
aa(lp3655
I1185
aI6
aI153
ag3
aa(lp3656
I1185
aI2
aI158
ag3
aa(lp3657
I1185
aI1
aI190
ag3
aa(lp3658
I1185
aI3
aI228
ag3
aa(lp3659
I1186
aI29
aI44
ag3
aa(lp3660
I1186
aI27
aI50
ag3
aa(lp3661
I1186
aI57
aI50
ag1037
aa(lp3662
I1187
aI20
aI84
ag3
aa(lp3663
I1187
aI12
aI115
ag1037
aa(lp3664
I1187
aI3
aI229
ag3
aa(lp3665
I1188
aI17
aI15
ag3
aa(lp3666
I1188
aI34
aI20
ag3
aa(lp3667
I1188
aI56
aI21
ag3
aa(lp3668
I1188
aI19
aI44
ag3
aa(lp3669
I1188
aI29
aI45
ag3
aa(lp3670
I1188
aI27
aI51
ag3
aa(lp3671
I1188
aI20
aI85
ag3
aa(lp3672
I1188
aI11
aI108
ag3
aa(lp3673
I1188
aI18
aI110
ag1037
aa(lp3674
I1188
aI10
aI149
ag1037
aa(lp3675
I1188
aI9
aI153
ag3
aa(lp3676
I1188
aI2
aI159
ag3
aa(lp3677
I1188
aI3
aI230
ag3
aa(lp3678
I1189
aI44
aI12
ag3
aa(lp3679
I1189
aI17
aI16
ag3
aa(lp3680
I1189
aI35
aI21
ag3
aa(lp3681
I1189
aI49
aI23
ag3
aa(lp3682
I1189
aI30
aI29
ag3
aa(lp3683
I1189
aI27
aI52
ag3
aa(lp3684
I1189
aI20
aI86
ag3
aa(lp3685
I1189
aI18
aI111
ag1037
aa(lp3686
I1189
aI14
aI136
ag3
aa(lp3687
I1189
aI10
aI150
ag1037
aa(lp3688
I1189
aI9
aI154
ag3
aa(lp3689
I1189
aI3
aI231
ag3
aa(lp3690
I1190
aI17
aI17
ag3
aa(lp3691
I1190
aI49
aI24
ag3
aa(lp3692
I1190
aI21
aI51
ag3
aa(lp3693
I1190
aI27
aI53
ag3
aa(lp3694
I1190
aI32
aI53
ag3
aa(lp3695
I1191
aI21
aI52
ag3
aa(lp3696
I1191
aI27
aI54
ag3
aa(lp3697
I1191
aI14
aI137
ag3
aa(lp3698
I1191
aI1
aI191
ag3
aa(lp3699
I1192
aI17
aI18
ag3
aa(lp3700
I1192
aI56
aI22
ag3
aa(lp3701
I1192
aI38
aI23
ag3
aa(lp3702
I1192
aI53
aI29
ag3
aa(lp3703
I1192
aI39
aI36
ag3
aa(lp3704
I1192
aI41
aI45
ag3
aa(lp3705
I1192
aI27
aI55
ag3
aa(lp3706
I1192
aI20
aI87
ag3
aa(lp3707
I1192
aI4
aI92
ag1037
aa(lp3708
I1192
aI5
aI101
ag3
aa(lp3709
I1192
aI12
aI116
ag1037
aa(lp3710
I1192
aI14
aI138
ag3
aa(lp3711
I1192
aI6
aI154
ag3
aa(lp3712
I1192
aI3
aI232
ag3
aa(lp3713
I1193
aI38
aI24
ag3
aa(lp3714
I1193
aI30
aI30
ag3
aa(lp3715
I1193
aI53
aI30
ag3
aa(lp3716
I1193
aI40
aI35
ag3
aa(lp3717
I1193
aI39
aI37
ag3
aa(lp3718
I1193
aI29
aI46
ag3
aa(lp3719
I1193
aI57
aI51
ag1037
aa(lp3720
I1193
aI21
aI53
ag3
aa(lp3721
I1193
aI27
aI56
ag3
aa(lp3722
I1193
aI16
aI84
ag3
aa(lp3723
I1193
aI5
aI102
ag3
aa(lp3724
I1193
aI12
aI117
ag1037
aa(lp3725
I1193
aI10
aI151
ag1037
aa(lp3726
I1193
aI6
aI155
ag3
aa(lp3727
I1193
aI9
aI155
ag3
aa(lp3728
I1193
aI2
aI160
ag3
aa(lp3729
I1193
aI1
aI192
ag3
aa(lp3730
I1193
aI3
aI233
ag3
aa(lp3731
I1194
aI4
aI93
ag1037
aa(lp3732
I1195
aI55
aI31
ag3
aa(lp3733
I1195
aI45
aI56
ag3
aa(lp3734
I1195
aI20
aI88
ag3
aa(lp3735
I1195
aI18
aI112
ag1037
aa(lp3736
I1195
aI6
aI156
ag3
aa(lp3737
I1195
aI1
aI193
ag3
aa(lp3738
I1195
aI3
aI234
ag3
aa(lp3739
I1196
aI17
aI19
ag3
aa(lp3740
I1196
aI52
aI31
ag3
aa(lp3741
I1196
aI31
aI37
ag3
aa(lp3742
I1196
aI29
aI47
ag3
aa(lp3743
I1196
aI9
aI156
ag3
aa(lp3744
I1196
aI6
aI157
ag3
aa(lp3745
I1197
aI27
aI57
ag3
aa(lp3746
I1197
aI20
aI89
ag3
aa(lp3747
I1197
aI11
aI109
ag3
aa(lp3748
I1197
aI14
aI139
ag3
aa(lp3749
I1197
aI10
aI152
ag1037
aa(lp3750
I1197
aI9
aI157
ag3
aa(lp3751
I1197
aI6
aI158
ag3
aa(lp3752
I1197
aI1
aI194
ag3
aa(lp3753
I1197
aI3
aI235
ag3
aa(lp3754
I1198
aI24
aI38
ag3
aa(lp3755
I1198
aI29
aI48
ag3
aa(lp3756
I1198
aI57
aI52
ag1037
aa(lp3757
I1198
aI16
aI85
ag3
aa(lp3758
I1198
aI11
aI110
ag3
aa(lp3759
I1198
aI6
aI159
ag3
aa(lp3760
I1199
aI26
aI13
ag3
aa(lp3761
I1199
aI45
aI57
ag3
aa(lp3762
I1199
aI18
aI113
ag1037
aa(lp3763
I1199
aI9
aI158
ag3
aa(lp3764
I1199
aI6
aI160
ag3
aa(lp3765
I1200
aI43
aI55
ag1037
aa(lp3766
I1200
aI27
aI58
ag3
aa(lp3767
I1201
aI56
aI23
ag3
aa(lp3768
I1201
aI52
aI32
ag3
aa(lp3769
I1201
aI10
aI153
ag1037
aa(lp3770
I1201
aI2
aI161
ag3
aa(lp3771
I1202
aI11
aI111
ag3
aa(lp3772
I1202
aI9
aI159
ag3
aa(lp3773
I1202
aI3
aI236
ag3
aa(lp3774
I1203
aI26
aI14
ag3
aa(lp3775
I1203
aI8
aI153
ag3
aa(lp3776
I1204
aI16
aI86
ag3
aa(lp3777
I1204
aI6
aI161
ag3
aa(lp3778
I1204
aI3
aI237
ag3
aa(lp3779
I1207
aI32
aI54
ag3
aa(lp3780
I1207
aI20
aI90
ag3
aa(lp3781
I1208
aI17
aI20
ag3
aa(lp3782
I1208
aI43
aI56
ag1037
aa(lp3783
I1208
aI27
aI59
ag3
aa(lp3784
I1208
aI11
aI112
ag3
aa(lp3785
I1208
aI14
aI140
ag3
aa(lp3786
I1208
aI9
aI160
ag3
aa(lp3787
I1208
aI6
aI162
ag1037
aa(lp3788
I1209
aI10
aI154
ag1037
aa(lp3789
I1214
aI45
aI58
ag3
aa(lp3790
I1214
aI6
aI163
ag1037
aa(lp3791
I1215
aI20
aI91
ag3
aa(lp3792
I1215
aI9
aI161
ag3
aa(lp3793
I1215
aI2
aI162
ag3
aa(lp3794
I1215
aI1
aI195
ag3
aa(lp3795
I1216
aI26
aI15
ag3
aa(lp3796
I1216
aI47
aI18
ag3
aa(lp3797
I1216
aI53
aI31
ag3
aa(lp3798
I1216
aI40
aI36
ag3
aa(lp3799
I1216
aI19
aI45
ag3
aa(lp3800
I1216
aI29
aI49
ag3
aa(lp3801
I1216
aI20
aI92
ag3
aa(lp3802
I1216
aI5
aI103
ag3
aa(lp3803
I1216
aI8
aI154
ag1037
aa(lp3804
I1216
aI9
aI162
ag3
aa(lp3805
I1217
aI34
aI21
ag3
aa(lp3806
I1217
aI30
aI31
ag3
aa(lp3807
I1217
aI53
aI32
ag3
aa(lp3808
I1217
aI5
aI104
ag1037
aa(lp3809
I1217
aI2
aI163
ag3
aa(lp3810
I1217
aI9
aI163
ag3
aa(lp3811
I1218
aI5
aI105
ag1037
aa(lp3812
I1218
aI11
aI113
ag3
aa(lp3813
I1218
aI8
aI155
ag1037
aa(lp3814
I1218
aI1
aI196
ag3
aa(lp3815
I1219
aI26
aI16
ag3
aa(lp3816
I1219
aI17
aI21
ag3
aa(lp3817
I1219
aI54
aI32
ag1037
aa(lp3818
I1219
aI1
aI197
ag3
aa(lp3819
I1220
aI26
aI17
ag3
aa(lp3820
I1220
aI17
aI22
ag3
aa(lp3821
I1220
aI30
aI32
ag3
aa(lp3822
I1220
aI21
aI54
ag3
aa(lp3823
I1220
aI4
aI94
ag1037
aa(lp3824
I1220
aI10
aI155
ag1037
aa(lp3825
I1220
aI2
aI164
ag3
aa(lp3826
I1220
aI9
aI164
ag3
aa(lp3827
I1220
aI3
aI238
ag3
aa(lp3828
I1221
aI44
aI13
ag3
aa(lp3829
I1221
aI34
aI22
ag3
aa(lp3830
I1221
aI17
aI23
ag3
aa(lp3831
I1221
aI30
aI33
ag3
aa(lp3832
I1221
aI40
aI37
ag3
aa(lp3833
I1221
aI19
aI46
ag3
aa(lp3834
I1221
aI21
aI55
ag3
aa(lp3835
I1221
aI5
aI106
ag1037
aa(lp3836
I1221
aI9
aI165
ag3
aa(lp3837
I1221
aI1
aI198
ag3
aa(lp3838
I1221
aI3
aI239
ag3
aa(lp3839
I1222
aI10
aI156
ag1037
aa(lp3840
I1222
aI2
aI165
ag3
aa(lp3841
I1223
aI1
aI199
ag3
aa(lp3842
I1223
aI3
aI240
ag3
aa(lp3843
I1224
aI17
aI24
ag3
aa(lp3844
I1224
aI32
aI55
ag3
aa(lp3845
I1224
aI27
aI60
ag3
aa(lp3846
I1224
aI16
aI87
ag3
aa(lp3847
I1224
aI14
aI141
ag3
aa(lp3848
I1224
aI6
aI164
ag1037
aa(lp3849
I1224
aI9
aI166
ag3
aa(lp3850
I1224
aI3
aI241
ag3
aa(lp3851
I1225
aI44
aI14
ag3
aa(lp3852
I1225
aI31
aI38
ag3
aa(lp3853
I1225
aI32
aI56
ag3
aa(lp3854
I1225
aI45
aI59
ag3
aa(lp3855
I1225
aI27
aI61
ag3
aa(lp3856
I1225
aI16
aI88
ag3
aa(lp3857
I1225
aI20
aI93
ag3
aa(lp3858
I1225
aI11
aI114
ag3
aa(lp3859
I1225
aI14
aI142
ag3
aa(lp3860
I1225
aI8
aI156
ag1037
aa(lp3861
I1225
aI2
aI166
ag3
aa(lp3862
I1225
aI1
aI200
ag3
aa(lp3863
I1225
aI3
aI242
ag3
aa(lp3864
I1226
aI44
aI15
ag3
aa(lp3865
I1226
aI24
aI39
ag3
aa(lp3866
I1226
aI6
aI165
ag1037
aa(lp3867
I1226
aI1
aI201
ag3
aa(lp3868
I1227
aI45
aI60
ag3
aa(lp3869
I1227
aI9
aI167
ag3
aa(lp3870
I1228
aI17
aI25
ag3
aa(lp3871
I1228
aI37
aI49
ag3
aa(lp3872
I1228
aI32
aI57
ag3
aa(lp3873
I1228
aI27
aI62
ag3
aa(lp3874
I1228
aI11
aI115
ag3
aa(lp3875
I1228
aI14
aI143
ag3
aa(lp3876
I1228
aI6
aI166
ag1037
aa(lp3877
I1228
aI9
aI168
ag3
aa(lp3878
I1229
aI34
aI23
ag3
aa(lp3879
I1229
aI17
aI26
ag3
aa(lp3880
I1229
aI32
aI58
ag3
aa(lp3881
I1229
aI45
aI61
ag3
aa(lp3882
I1229
aI11
aI116
ag3
aa(lp3883
I1229
aI14
aI144
ag3
aa(lp3884
I1229
aI10
aI157
ag1037
aa(lp3885
I1229
aI2
aI167
ag3
aa(lp3886
I1229
aI6
aI167
ag1037
aa(lp3887
I1229
aI9
aI169
ag3
aa(lp3888
I1229
aI1
aI202
ag3
aa(lp3889
I1229
aI3
aI243
ag3
aa(lp3890
I1230
aI30
aI34
ag3
aa(lp3891
I1230
aI11
aI117
ag3
aa(lp3892
I1230
aI14
aI145
ag3
aa(lp3893
I1230
aI10
aI158
ag1037
aa(lp3894
I1231
aI26
aI18
ag3
aa(lp3895
I1231
aI32
aI59
ag3
aa(lp3896
I1231
aI45
aI62
ag3
aa(lp3897
I1231
aI1
aI203
ag3
aa(lp3898
I1231
aI3
aI244
ag3
aa(lp3899
I1232
aI17
aI27
ag3
aa(lp3900
I1232
aI30
aI35
ag3
aa(lp3901
I1232
aI27
aI63
ag3
aa(lp3902
I1232
aI45
aI63
ag3
aa(lp3903
I1232
aI7
aI85
ag1037
aa(lp3904
I1232
aI11
aI118
ag3
aa(lp3905
I1232
aI14
aI146
ag3
aa(lp3906
I1232
aI6
aI168
ag1037
aa(lp3907
I1232
aI9
aI170
ag3
aa(lp3908
I1232
aI3
aI245
ag3
aa(lp3909
I1233
aI56
aI24
ag3
aa(lp3910
I1233
aI55
aI32
ag3
aa(lp3911
I1233
aI19
aI47
ag3
aa(lp3912
I1233
aI32
aI60
ag3
aa(lp3913
I1233
aI7
aI86
ag1037
aa(lp3914
I1233
aI4
aI95
ag1037
aa(lp3915
I1233
aI11
aI119
ag3
aa(lp3916
I1233
aI14
aI147
ag3
aa(lp3917
I1233
aI8
aI157
ag1037
aa(lp3918
I1233
aI10
aI159
ag1037
aa(lp3919
I1233
aI9
aI171
ag3
aa(lp3920
I1233
aI1
aI204
ag3
aa(lp3921
I1233
aI3
aI246
ag3
aa(lp3922
I1234
aI29
aI50
ag3
aa(lp3923
I1234
aI45
aI64
ag3
aa(lp3924
I1234
aI10
aI160
ag1037
aa(lp3925
I1234
aI6
aI169
ag1037
aa(lp3926
I1234
aI1
aI205
ag3
aa(lp3927
I1235
aI32
aI61
ag3
aa(lp3928
I1235
aI45
aI65
ag3
aa(lp3929
I1235
aI9
aI172
ag3
aa(lp3930
I1235
aI1
aI206
ag3
aa(lp3931
I1235
aI3
aI247
ag3
aa(lp3932
I1236
aI17
aI28
ag3
aa(lp3933
I1236
aI33
aI38
ag3
aa(lp3934
I1236
aI27
aI64
ag3
aa(lp3935
I1236
aI16
aI89
ag3
aa(lp3936
I1236
aI11
aI120
ag3
aa(lp3937
I1236
aI14
aI148
ag3
aa(lp3938
I1236
aI3
aI248
ag3
aa(lp3939
I1237
aI44
aI16
ag3
aa(lp3940
I1237
aI33
aI39
ag3
aa(lp3941
I1237
aI45
aI66
ag3
aa(lp3942
I1237
aI20
aI94
ag3
aa(lp3943
I1237
aI5
aI107
ag1037
aa(lp3944
I1237
aI11
aI121
ag3
aa(lp3945
I1237
aI14
aI149
ag3
aa(lp3946
I1237
aI8
aI158
ag1037
aa(lp3947
I1237
aI1
aI207
ag3
aa(lp3948
I1237
aI3
aI249
ag3
aa(lp3949
I1238
aI34
aI24
ag3
aa(lp3950
I1238
aI40
aI38
ag3
aa(lp3951
I1238
aI33
aI40
ag3
aa(lp3952
I1239
aI27
aI65
ag3
aa(lp3953
I1239
aI20
aI95
ag1037
aa(lp3954
I1239
aI14
aI150
ag3
aa(lp3955
I1239
aI9
aI173
ag3
aa(lp3956
I1239
aI1
aI208
ag3
aa(lp3957
I1239
aI3
aI250
ag3
aa(lp3958
I1240
aI23
aI17
ag3
aa(lp3959
I1240
aI17
aI29
ag3
aa(lp3960
I1240
aI19
aI48
ag3
aa(lp3961
I1240
aI43
aI57
ag1037
aa(lp3962
I1240
aI27
aI66
ag3
aa(lp3963
I1240
aI11
aI122
ag3
aa(lp3964
I1240
aI14
aI151
ag3
aa(lp3965
I1241
aI44
aI17
ag3
aa(lp3966
I1241
aI23
aI18
ag3
aa(lp3967
I1241
aI34
aI25
ag3
aa(lp3968
I1241
aI56
aI25
ag3
aa(lp3969
I1241
aI40
aI39
ag3
aa(lp3970
I1241
aI41
aI46
ag3
aa(lp3971
I1241
aI19
aI49
ag3
aa(lp3972
I1241
aI37
aI50
ag3
aa(lp3973
I1241
aI29
aI51
ag3
aa(lp3974
I1241
aI32
aI62
ag3
aa(lp3975
I1241
aI27
aI67
ag3
aa(lp3976
I1241
aI45
aI67
ag3
aa(lp3977
I1241
aI20
aI96
ag1037
aa(lp3978
I1241
aI5
aI108
ag1037
aa(lp3979
I1241
aI14
aI152
ag1037
aa(lp3980
I1241
aI10
aI161
ag1037
aa(lp3981
I1241
aI2
aI168
ag3
aa(lp3982
I1241
aI9
aI174
ag3
aa(lp3983
I1241
aI1
aI209
ag3
aa(lp3984
I1242
aI23
aI19
ag3
aa(lp3985
I1242
aI34
aI26
ag3
aa(lp3986
I1242
aI24
aI40
ag3
aa(lp3987
I1243
aI4
aI96
ag1037
aa(lp3988
I1243
aI1
aI210
ag3
aa(lp3989
I1244
aI26
aI19
ag3
aa(lp3990
I1244
aI23
aI20
ag3
aa(lp3991
I1244
aI49
aI25
ag3
aa(lp3992
I1244
aI29
aI52
ag3
aa(lp3993
I1244
aI27
aI68
ag3
aa(lp3994
I1244
aI11
aI123
ag3
aa(lp3995
I1245
aI26
aI20
ag3
aa(lp3996
I1245
aI23
aI21
ag3
aa(lp3997
I1245
aI49
aI26
ag3
aa(lp3998
I1245
aI31
aI39
ag3
aa(lp3999
I1245
aI40
aI40
ag3
aa(lp4000
I1245
aI37
aI51
ag3
aa(lp4001
I1245
aI29
aI53
ag3
aa(lp4002
I1245
aI16
aI90
ag3
aa(lp4003
I1245
aI20
aI97
ag1037
aa(lp4004
I1245
aI11
aI124
ag3
aa(lp4005
I1245
aI8
aI159
ag1037
aa(lp4006
I1245
aI10
aI162
ag1037
aa(lp4007
I1245
aI2
aI169
ag3
aa(lp4008
I1245
aI9
aI175
ag3
aa(lp4009
I1245
aI1
aI211
ag3
aa(lp4010
I1246
aI48
aI24
ag3
aa(lp4011
I1246
aI54
aI33
ag1037
aa(lp4012
I1246
aI24
aI41
ag3
aa(lp4013
I1246
aI10
aI163
ag1037
aa(lp4014
I1247
aI49
aI27
ag3
aa(lp4015
I1247
aI53
aI33
ag3
aa(lp4016
I1247
aI10
aI164
ag1037
aa(lp4017
I1247
aI2
aI170
ag3
aa(lp4018
I1247
aI1
aI212
ag3
aa(lp4019
I1248
aI44
aI18
ag3
aa(lp4020
I1248
aI23
aI22
ag3
aa(lp4021
I1248
aI38
aI25
ag3
aa(lp4022
I1248
aI48
aI25
ag3
aa(lp4023
I1248
aI56
aI26
ag3
aa(lp4024
I1248
aI17
aI30
ag3
aa(lp4025
I1248
aI54
aI34
ag1037
aa(lp4026
I1248
aI30
aI36
ag3
aa(lp4027
I1248
aI39
aI38
ag3
aa(lp4028
I1248
aI40
aI41
ag3
aa(lp4029
I1248
aI29
aI54
ag3
aa(lp4030
I1248
aI5
aI109
ag1037
aa(lp4031
I1248
aI9
aI176
ag3
aa(lp4032
I1249
aI44
aI19
ag3
aa(lp4033
I1249
aI23
aI23
ag3
aa(lp4034
I1249
aI49
aI28
ag3
aa(lp4035
I1249
aI53
aI34
ag3
aa(lp4036
I1249
aI33
aI41
ag3
aa(lp4037
I1249
aI37
aI52
ag3
aa(lp4038
I1249
aI29
aI55
ag3
aa(lp4039
I1249
aI16
aI91
ag3
aa(lp4040
I1249
aI5
aI110
ag1037
aa(lp4041
I1249
aI9
aI177
ag3
aa(lp4042
I1249
aI1
aI213
ag3
aa(lp4043
I1250
aI40
aI42
ag3
aa(lp4044
I1251
aI32
aI63
ag3
aa(lp4045
I1251
aI27
aI69
ag1037
aa(lp4046
I1251
aI8
aI160
ag1037
aa(lp4047
I1251
aI10
aI165
ag1037
aa(lp4048
I1251
aI1
aI214
ag3
aa(lp4049
I1252
aI17
aI31
ag3
aa(lp4050
I1252
aI30
aI37
ag3
aa(lp4051
I1252
aI37
aI53
ag3
aa(lp4052
I1252
aI27
aI70
ag1037
aa(lp4053
I1252
aI20
aI98
ag1037
aa(lp4054
I1252
aI11
aI125
ag3
aa(lp4055
I1252
aI14
aI153
ag1037
aa(lp4056
I1252
aI9
aI178
ag3
aa(lp4057
I1252
aI3
aI251
ag3
aa(lp4058
I1253
aI23
aI24
ag3
aa(lp4059
I1253
aI33
aI42
ag3
aa(lp4060
I1253
aI21
aI56
ag3
aa(lp4061
I1253
aI32
aI64
ag3
aa(lp4062
I1253
aI3
aI252
ag3
aa(lp4063
I1254
aI40
aI43
ag3
aa(lp4064
I1254
aI11
aI126
ag3
aa(lp4065
I1254
aI6
aI170
ag1037
aa(lp4066
I1255
aI26
aI21
ag3
aa(lp4067
I1255
aI45
aI68
ag3
aa(lp4068
I1255
aI20
aI99
ag1037
aa(lp4069
I1255
aI9
aI179
ag3
aa(lp4070
I1255
aI3
aI253
ag3
aa(lp4071
I1256
aI34
aI27
ag3
aa(lp4072
I1256
aI51
aI42
ag3
aa(lp4073
I1256
aI33
aI43
ag3
aa(lp4074
I1256
aI21
aI57
ag3
aa(lp4075
I1256
aI27
aI71
ag1037
aa(lp4076
I1256
aI20
aI100
ag1037
aa(lp4077
I1256
aI11
aI127
ag3
aa(lp4078
I1256
aI6
aI171
ag1037
aa(lp4079
I1256
aI9
aI180
ag3
aa(lp4080
I1256
aI1
aI215
ag3
aa(lp4081
I1256
aI3
aI254
ag3
aa(lp4082
I1257
aI34
aI28
ag3
aa(lp4083
I1257
aI19
aI50
ag3
aa(lp4084
I1257
aI21
aI58
ag3
aa(lp4085
I1257
aI32
aI65
ag3
aa(lp4086
I1257
aI20
aI101
ag1037
aa(lp4087
I1257
aI11
aI128
ag3
aa(lp4088
I1257
aI14
aI154
ag1037
aa(lp4089
I1257
aI10
aI166
ag1037
aa(lp4090
I1257
aI3
aI255
ag3
aa(lp4091
I1258
aI41
aI47
ag1037
aa(lp4092
I1258
aI3
aI256
ag3
aa(lp4093
I1259
aI45
aI69
ag3
aa(lp4094
I1259
aI27
aI72
ag1037
aa(lp4095
I1259
aI5
aI111
ag1037
aa(lp4096
I1259
aI8
aI161
ag1037
aa(lp4097
I1259
aI3
aI257
ag3
aa(lp4098
I1260
aI34
aI29
ag3
aa(lp4099
I1260
aI17
aI32
ag3
aa(lp4100
I1260
aI33
aI44
ag3
aa(lp4101
I1260
aI43
aI58
ag1037
aa(lp4102
I1260
aI16
aI92
ag1037
aa(lp4103
I1260
aI20
aI102
ag1037
aa(lp4104
I1260
aI14
aI155
ag1037
aa(lp4105
I1260
aI9
aI181
ag3
aa(lp4106
I1260
aI3
aI258
ag3
aa(lp4107
I1261
aI52
aI33
ag3
aa(lp4108
I1261
aI20
aI103
ag1037
aa(lp4109
I1261
aI11
aI129
ag3
aa(lp4110
I1261
aI8
aI162
ag1037
aa(lp4111
I1261
aI3
aI259
ag3
aa(lp4112
I1262
aI6
aI172
ag1037
aa(lp4113
I1263
aI21
aI59
ag3
aa(lp4114
I1263
aI10
aI167
ag1037
aa(lp4115
I1263
aI1
aI216
ag3
aa(lp4116
I1263
aI3
aI260
ag3
aa(lp4117
I1264
aI23
aI25
ag3
aa(lp4118
I1264
aI38
aI26
ag3
aa(lp4119
I1264
aI33
aI45
ag3
aa(lp4120
I1264
aI27
aI73
ag1037
aa(lp4121
I1264
aI11
aI130
ag1037
aa(lp4122
I1264
aI3
aI261
ag3
aa(lp4123
I1265
aI34
aI30
ag3
aa(lp4124
I1265
aI21
aI60
ag3
aa(lp4125
I1265
aI32
aI66
ag3
aa(lp4126
I1265
aI20
aI104
ag1037
aa(lp4127
I1265
aI11
aI131
ag1037
aa(lp4128
I1265
aI14
aI156
ag1037
aa(lp4129
I1265
aI9
aI182
ag3
aa(lp4130
I1265
aI1
aI217
ag3
aa(lp4131
I1265
aI3
aI262
ag3
aa(lp4132
I1266
aI34
aI31
ag3
aa(lp4133
I1266
aI6
aI173
ag1037
aa(lp4134
I1269
aI50
aI21
ag3
aa(lp4135
I1269
aI56
aI27
ag3
aa(lp4136
I1269
aI49
aI29
ag3
aa(lp4137
I1269
aI24
aI42
ag3
aa(lp4138
I1269
aI45
aI70
ag3
aa(lp4139
I1269
aI27
aI74
ag1037
aa(lp4140
I1269
aI11
aI132
ag1037
aa(lp4141
I1270
aI24
aI43
ag3
aa(lp4142
I1270
aI9
aI183
ag3
aa(lp4143
I1270
aI1
aI218
ag3
aa(lp4144
I1270
aI3
aI263
ag3
aa(lp4145
I1271
aI26
aI22
ag3
aa(lp4146
I1271
aI41
aI48
ag1037
aa(lp4147
I1271
aI8
aI163
ag1037
aa(lp4148
I1271
aI1
aI219
ag3
aa(lp4149
I1272
aI17
aI33
ag3
aa(lp4150
I1272
aI30
aI38
ag3
aa(lp4151
I1272
aI33
aI46
ag3
aa(lp4152
I1272
aI29
aI56
ag3
aa(lp4153
I1272
aI7
aI87
ag1037
aa(lp4154
I1272
aI20
aI105
ag1037
aa(lp4155
I1272
aI5
aI112
ag1037
aa(lp4156
I1272
aI11
aI133
ag1037
aa(lp4157
I1272
aI10
aI168
ag1037
aa(lp4158
I1272
aI3
aI264
ag3
aa(lp4159
I1273
aI38
aI27
ag3
aa(lp4160
I1273
aI56
aI28
ag3
aa(lp4161
I1273
aI34
aI32
ag3
aa(lp4162
I1273
aI17
aI34
ag3
aa(lp4163
I1273
aI31
aI40
ag3
aa(lp4164
I1273
aI51
aI43
ag3
aa(lp4165
I1273
aI33
aI47
ag3
aa(lp4166
I1273
aI19
aI51
ag3
aa(lp4167
I1273
aI7
aI88
ag1037
aa(lp4168
I1273
aI9
aI184
ag3
aa(lp4169
I1273
aI1
aI220
ag3
aa(lp4170
I1273
aI3
aI265
ag3
aa(lp4171
I1274
aI34
aI33
ag3
aa(lp4172
I1274
aI51
aI44
ag3
aa(lp4173
I1274
aI32
aI67
ag3
aa(lp4174
I1274
aI11
aI134
ag1037
aa(lp4175
I1274
aI1
aI221
ag3
aa(lp4176
I1275
aI3
aI266
ag3
aa(lp4177
I1276
aI26
aI23
ag3
aa(lp4178
I1276
aI17
aI35
ag3
aa(lp4179
I1276
aI53
aI35
ag3
aa(lp4180
I1276
aI51
aI45
ag3
aa(lp4181
I1276
aI33
aI48
ag3
aa(lp4182
I1276
aI21
aI61
ag3
aa(lp4183
I1276
aI5
aI113
ag1037
aa(lp4184
I1276
aI9
aI185
ag3
aa(lp4185
I1277
aI44
aI20
ag3
aa(lp4186
I1277
aI33
aI49
ag3
aa(lp4187
I1277
aI29
aI57
ag3
aa(lp4188
I1277
aI5
aI114
ag1037
aa(lp4189
I1277
aI3
aI267
ag3
aa(lp4190
I1279
aI45
aI71
ag3
aa(lp4191
I1279
aI20
aI106
ag1037
aa(lp4192
I1279
aI14
aI157
ag1037
aa(lp4193
I1279
aI3
aI268
ag3
aa(lp4194
I1280
aI26
aI24
ag3
aa(lp4195
I1280
aI17
aI36
ag3
aa(lp4196
I1280
aI32
aI68
ag3
aa(lp4197
I1280
aI27
aI75
ag1037
aa(lp4198
I1280
aI8
aI164
ag1037
aa(lp4199
I1280
aI6
aI174
ag1037
aa(lp4200
I1281
aI31
aI41
ag3
aa(lp4201
I1281
aI32
aI69
ag3
aa(lp4202
I1281
aI45
aI72
ag3
aa(lp4203
I1281
aI4
aI97
ag1037
aa(lp4204
I1281
aI11
aI135
ag1037
aa(lp4205
I1281
aI6
aI175
ag1037
aa(lp4206
I1281
aI9
aI186
ag3
aa(lp4207
I1281
aI3
aI269
ag3
aa(lp4208
I1282
aI4
aI98
ag1037
aa(lp4209
I1282
aI6
aI176
ag1037
aa(lp4210
I1283
aI32
aI70
ag3
aa(lp4211
I1283
aI3
aI270
ag3
aa(lp4212
I1284
aI34
aI34
ag3
aa(lp4213
I1284
aI51
aI46
ag3
aa(lp4214
I1284
aI37
aI54
ag3
aa(lp4215
I1284
aI27
aI76
ag1037
aa(lp4216
I1285
aI35
aI22
ag3
aa(lp4217
I1285
aI56
aI29
ag3
aa(lp4218
I1285
aI37
aI55
ag1037
aa(lp4219
I1285
aI32
aI71
ag3
aa(lp4220
I1285
aI11
aI136
ag1037
aa(lp4221
I1285
aI14
aI158
ag1037
aa(lp4222
I1285
aI3
aI271
ag3
aa(lp4223
I1286
aI6
aI177
ag1037
aa(lp4224
I1287
aI21
aI62
ag3
aa(lp4225
I1287
aI3
aI272
ag3
aa(lp4226
I1288
aI23
aI26
ag3
aa(lp4227
I1288
aI17
aI37
ag3
aa(lp4228
I1288
aI51
aI47
ag3
aa(lp4229
I1288
aI33
aI50
ag3
aa(lp4230
I1288
aI32
aI72
ag3
aa(lp4231
I1288
aI27
aI77
ag1037
aa(lp4232
I1288
aI8
aI165
ag1037
aa(lp4233
I1288
aI3
aI273
ag3
aa(lp4234
I1289
aI44
aI21
ag3
aa(lp4235
I1289
aI52
aI34
ag1037
aa(lp4236
I1289
aI34
aI35
ag3
aa(lp4237
I1289
aI40
aI44
ag3
aa(lp4238
I1289
aI33
aI51
ag3
aa(lp4239
I1289
aI43
aI59
ag1037
aa(lp4240
I1289
aI21
aI63
ag3
aa(lp4241
I1289
aI32
aI73
ag3
aa(lp4242
I1289
aI16
aI93
ag1037
aa(lp4243
I1289
aI14
aI159
ag1037
aa(lp4244
I1289
aI8
aI166
ag1037
aa(lp4245
I1289
aI3
aI274
ag3
aa(lp4246
I1290
aI52
aI35
ag1037
aa(lp4247
I1290
aI30
aI39
ag1037
aa(lp4248
I1290
aI8
aI167
ag1037
aa(lp4249
I1290
aI6
aI178
ag1037
aa(lp4250
I1290
aI9
aI187
ag3
aa(lp4251
I1291
aI17
aI38
ag3
aa(lp4252
I1291
aI32
aI74
ag3
aa(lp4253
I1291
aI9
aI188
ag3
aa(lp4254
I1292
aI48
aI26
ag1037
aa(lp4255
I1292
aI33
aI52
ag1037
aa(lp4256
I1292
aI21
aI64
ag3
aa(lp4257
I1292
aI27
aI78
ag1037
aa(lp4258
I1292
aI14
aI160
ag1037
aa(lp4259
I1292
aI3
aI275
ag3
aa(lp4260
I1293
aI21
aI65
ag3
aa(lp4261
I1295
aI1
aI222
ag3
aa(lp4262
I1296
aI13
aI63
ag1037
aa(lp4263
I1297
aI44
aI22
ag3
aa(lp4264
I1297
aI35
aI23
ag3
aa(lp4265
I1297
aI40
aI45
ag3
aa(lp4266
I1297
aI45
aI73
ag3
aa(lp4267
I1297
aI1
aI223
ag1037
aa(lp4268
I1297
aI3
aI276
ag3
aa(lp4269
I1298
aI41
aI49
ag1037
aa(lp4270
I1298
aI6
aI179
ag1037
aa(lp4271
I1298
aI9
aI189
ag3
aa(lp4272
I1299
aI55
aI33
ag3
aa(lp4273
I1299
aI34
aI36
ag3
aa(lp4274
I1299
aI20
aI107
ag1037
aa(lp4275
I1299
aI8
aI168
ag1037
aa(lp4276
I1300
aI35
aI24
ag1037
aa(lp4277
I1300
aI23
aI27
ag3
aa(lp4278
I1300
aI17
aI39
ag3
aa(lp4279
I1300
aI39
aI39
ag3
aa(lp4280
I1300
aI51
aI48
ag3
aa(lp4281
I1300
aI13
aI64
ag1037
aa(lp4282
I1300
aI7
aI89
ag1037
aa(lp4283
I1300
aI9
aI190
ag3
aa(lp4284
I1301
aI23
aI28
ag3
aa(lp4285
I1301
aI34
aI37
ag3
aa(lp4286
I1301
aI17
aI40
ag3
aa(lp4287
I1301
aI39
aI40
ag3
aa(lp4288
I1301
aI33
aI53
ag1037
aa(lp4289
I1301
aI37
aI56
ag1037
aa(lp4290
I1301
aI21
aI66
ag3
aa(lp4291
I1301
aI16
aI94
ag1037
aa(lp4292
I1301
aI20
aI108
ag1037
aa(lp4293
I1301
aI5
aI115
ag1037
aa(lp4294
I1301
aI8
aI169
ag1037
aa(lp4295
I1301
aI3
aI277
ag3
aa(lp4296
I1302
aI34
aI38
ag3
aa(lp4297
I1302
aI17
aI41
ag3
aa(lp4298
I1302
aI21
aI67
ag3
aa(lp4299
I1302
aI32
aI75
ag3
aa(lp4300
I1303
aI21
aI68
ag3
aa(lp4301
I1303
aI9
aI191
ag3
aa(lp4302
I1303
aI1
aI224
ag1037
aa(lp4303
I1304
aI26
aI25
ag3
aa(lp4304
I1304
aI23
aI29
ag3
aa(lp4305
I1304
aI56
aI30
ag3
aa(lp4306
I1304
aI51
aI49
ag3
aa(lp4307
I1304
aI16
aI95
ag1037
aa(lp4308
I1304
aI8
aI170
ag1037
aa(lp4309
I1304
aI9
aI192
ag3
aa(lp4310
I1304
aI3
aI278
ag3
aa(lp4311
I1305
aI38
aI28
ag1037
aa(lp4312
I1305
aI23
aI30
ag3
aa(lp4313
I1305
aI34
aI39
ag3
aa(lp4314
I1305
aI31
aI42
ag3
aa(lp4315
I1305
aI33
aI54
ag1037
aa(lp4316
I1305
aI21
aI69
ag3
aa(lp4317
I1305
aI45
aI74
ag3
aa(lp4318
I1305
aI9
aI193
ag3
aa(lp4319
I1305
aI1
aI225
ag1037
aa(lp4320
I1305
aI3
aI279
ag3
aa(lp4321
I1306
aI38
aI29
ag1037
aa(lp4322
I1306
aI11
aI137
ag1037
aa(lp4323
I1321
aI26
aI26
ag3
aa(lp4324
I1321
aI39
aI41
ag3
aa(lp4325
I1321
aI19
aI52
ag1037
aa(lp4326
I1322
aI24
aI44
ag1037
aa(lp4327
I1322
aI29
aI58
ag3
aa(lp4328
I1322
aI27
aI79
ag1037
aa(lp4329
I1322
aI3
aI280
ag3
aa(lp4330
I1323
aI55
aI34
ag1037
aa(lp4331
I1323
aI33
aI55
ag1037
aa(lp4332
I1324
aI26
aI27
ag3
aa(lp4333
I1324
aI55
aI35
ag1037
aa(lp4334
I1324
aI30
aI40
ag1037
aa(lp4335
I1324
aI17
aI42
ag3
aa(lp4336
I1324
aI33
aI56
ag1037
aa(lp4337
I1324
aI6
aI180
ag1037
aa(lp4338
I1325
aI44
aI23
ag3
aa(lp4339
I1325
aI26
aI28
ag3
aa(lp4340
I1325
aI49
aI30
ag3
aa(lp4341
I1325
aI24
aI45
ag1037
aa(lp4342
I1325
aI29
aI59
ag3
aa(lp4343
I1325
aI32
aI76
ag3
aa(lp4344
I1325
aI27
aI80
ag1037
aa(lp4345
I1325
aI16
aI96
ag1037
aa(lp4346
I1325
aI11
aI138
ag1037
aa(lp4347
I1325
aI1
aI226
ag1037
aa(lp4348
I1325
aI3
aI281
ag3
aa(lp4349
I1326
aI27
aI81
ag1037
aa(lp4350
I1327
aI49
aI31
ag3
aa(lp4351
I1327
aI29
aI60
ag3
aa(lp4352
I1327
aI7
aI90
ag1037
aa(lp4353
I1327
aI20
aI109
ag1037
aa(lp4354
I1327
aI1
aI227
ag1037
aa(lp4355
I1328
aI47
aI19
ag3
aa(lp4356
I1328
aI17
aI43
ag3
aa(lp4357
I1328
aI32
aI77
ag3
aa(lp4358
I1328
aI5
aI116
ag1037
aa(lp4359
I1328
aI2
aI171
ag1037
aa(lp4360
I1329
aI44
aI24
ag3
aa(lp4361
I1329
aI56
aI31
ag3
aa(lp4362
I1329
aI52
aI36
ag1037
aa(lp4363
I1329
aI17
aI44
ag3
aa(lp4364
I1329
aI29
aI61
ag3
aa(lp4365
I1329
aI13
aI65
ag1037
aa(lp4366
I1329
aI32
aI78
ag3
aa(lp4367
I1329
aI27
aI82
ag1037
aa(lp4368
I1329
aI7
aI91
ag1037
aa(lp4369
I1329
aI8
aI171
ag1037
aa(lp4370
I1329
aI2
aI172
ag1037
aa(lp4371
I1329
aI3
aI282
ag3
aa(lp4372
I1330
aI47
aI20
ag3
aa(lp4373
I1330
aI3
aI283
ag3
aa(lp4374
I1331
aI54
aI35
ag1037
aa(lp4375
I1331
aI29
aI62
ag3
aa(lp4376
I1331
aI13
aI66
ag1037
aa(lp4377
I1331
aI1
aI228
ag1037
aa(lp4378
I1332
aI49
aI32
ag3
aa(lp4379
I1332
aI39
aI42
ag3
aa(lp4380
I1332
aI24
aI46
ag1037
aa(lp4381
I1332
aI40
aI46
ag3
aa(lp4382
I1332
aI27
aI83
ag1037
aa(lp4383
I1332
aI11
aI139
ag1037
aa(lp4384
I1333
aI26
aI29
ag3
aa(lp4385
I1333
aI56
aI32
ag1037
aa(lp4386
I1333
aI49
aI33
ag1037
aa(lp4387
I1333
aI31
aI43
ag3
aa(lp4388
I1333
aI39
aI43
ag1037
aa(lp4389
I1333
aI13
aI67
ag1037
aa(lp4390
I1333
aI32
aI79
ag3
aa(lp4391
I1333
aI16
aI97
ag1037
aa(lp4392
I1333
aI5
aI117
ag1037
aa(lp4393
I1333
aI2
aI173
ag1037
aa(lp4394
I1333
aI3
aI284
ag1037
aa(lp4395
I1334
aI35
aI25
ag1037
aa(lp4396
I1334
aI1
aI229
ag1037
aa(lp4397
I1334
aI3
aI285
ag1037
aa(lp4398
I1335
aI49
aI34
ag1037
aa(lp4399
I1335
aI29
aI63
ag3
aa(lp4400
I1335
aI7
aI92
ag1037
aa(lp4401
I1335
aI1
aI230
ag1037
aa(lp4402
I1336
aI26
aI30
ag3
aa(lp4403
I1336
aI53
aI36
ag3
aa(lp4404
I1336
aI19
aI53
ag1037
aa(lp4405
I1336
aI37
aI57
ag1037
aa(lp4406
I1336
aI13
aI68
ag1037
aa(lp4407
I1336
aI7
aI93
ag1037
aa(lp4408
I1336
aI2
aI174
ag1037
aa(lp4409
I1336
aI3
aI286
ag1037
aa(lp4410
I1337
aI26
aI31
ag3
aa(lp4411
I1337
aI53
aI37
ag1037
aa(lp4412
I1337
aI51
aI50
ag3
aa(lp4413
I1337
aI7
aI94
ag1037
aa(lp4414
I1337
aI11
aI140
ag1037
aa(lp4415
I1337
aI2
aI175
ag1037
aa(lp4416
I1337
aI9
aI194
ag3
aa(lp4417
I1337
aI1
aI231
ag1037
aa(lp4418
I1337
aI3
aI287
ag1037
aa(lp4419
I1338
aI49
aI35
ag1037
aa(lp4420
I1338
aI24
aI47
ag1037
aa(lp4421
I1338
aI29
aI64
ag1037
aa(lp4422
I1338
aI2
aI176
ag1037
aa(lp4423
I1338
aI1
aI232
ag1037
aa(lp4424
I1340
aI17
aI45
ag3
aa(lp4425
I1340
aI51
aI51
ag3
aa(lp4426
I1340
aI15
aI56
ag1037
aa(lp4427
I1340
aI37
aI58
ag1037
aa(lp4428
I1340
aI2
aI177
ag1037
aa(lp4429
I1340
aI3
aI288
ag1037
aa(lp4430
I1341
aI47
aI21
ag1037
aa(lp4431
I1341
aI31
aI44
ag3
aa(lp4432
I1341
aI32
aI80
ag1037
aa(lp4433
I1341
aI2
aI178
ag1037
aa(lp4434
I1341
aI9
aI195
ag3
aa(lp4435
I1342
aI17
aI46
ag3
aa(lp4436
I1342
aI7
aI95
ag1037
aa(lp4437
I1342
aI3
aI289
ag1037
aa(lp4438
I1343
aI19
aI54
ag1037
aa(lp4439
I1344
aI44
aI25
ag3
aa(lp4440
I1344
aI48
aI27
ag1037
aa(lp4441
I1344
aI26
aI32
ag3
aa(lp4442
I1344
aI49
aI36
ag1037
aa(lp4443
I1344
aI19
aI55
ag1037
aa(lp4444
I1344
aI29
aI65
ag1037
aa(lp4445
I1344
aI5
aI118
ag1037
aa(lp4446
I1344
aI11
aI141
ag1037
aa(lp4447
I1344
aI1
aI233
ag1037
aa(lp4448
I1344
aI3
aI290
ag1037
aa(lp4449
I1345
aI26
aI33
ag3
aa(lp4450
I1345
aI49
aI37
ag1037
aa(lp4451
I1345
aI30
aI41
ag1037
aa(lp4452
I1345
aI32
aI81
ag1037
aa(lp4453
I1345
aI7
aI96
ag1037
aa(lp4454
I1345
aI8
aI172
ag1037
aa(lp4455
I1345
aI9
aI196
ag1037
aa(lp4456
I1346
aI44
aI26
ag3
aa(lp4457
I1346
aI49
aI38
ag1037
aa(lp4458
I1346
aI53
aI38
ag1037
aa(lp4459
I1346
aI25
aI42
ag1037
aa(lp4460
I1346
aI8
aI173
ag1037
aa(lp4461
I1347
aI30
aI42
ag1037
aa(lp4462
I1347
aI1
aI234
ag1037
aa(lp4463
I1348
aI56
aI33
ag1037
aa(lp4464
I1348
aI13
aI69
ag1037
aa(lp4465
I1348
aI2
aI179
ag1037
aa(lp4466
I1348
aI9
aI197
ag1037
aa(lp4467
I1348
aI3
aI291
ag1037
aa(lp4468
I1349
aI40
aI47
ag1037
aa(lp4469
I1349
aI8
aI174
ag1037
aa(lp4470
I1349
aI2
aI180
ag1037
aa(lp4471
I1350
aI5
aI119
ag1037
aa(lp4472
I1351
aI26
aI34
ag3
aa(lp4473
I1351
aI45
aI75
ag3
aa(lp4474
I1352
aI47
aI22
ag1037
aa(lp4475
I1352
aI23
aI31
ag3
aa(lp4476
I1352
aI56
aI34
ag1037
aa(lp4477
I1352
aI15
aI57
ag1037
aa(lp4478
I1352
aI13
aI70
ag1037
aa(lp4479
I1352
aI32
aI82
ag1037
aa(lp4480
I1352
aI14
aI161
ag1037
aa(lp4481
I1352
aI1
aI235
ag1037
aa(lp4482
I1352
aI3
aI292
ag1037
aa(lp4483
I1353
aI47
aI23
ag1037
aa(lp4484
I1353
aI54
aI36
ag1037
aa(lp4485
I1353
aI40
aI48
ag1037
aa(lp4486
I1353
aI51
aI52
ag1037
aa(lp4487
I1353
aI33
aI57
ag1037
aa(lp4488
I1353
aI45
aI76
ag1037
aa(lp4489
I1353
aI32
aI83
ag1037
aa(lp4490
I1353
aI4
aI99
ag1037
aa(lp4491
I1353
aI5
aI120
ag1037
aa(lp4492
I1353
aI14
aI162
ag1037
aa(lp4493
I1353
aI9
aI198
ag1037
aa(lp4494
I1353
aI3
aI293
ag1037
aa(lp4495
I1355
aI26
aI35
ag3
aa(lp4496
I1355
aI9
aI199
ag1037
aa(lp4497
I1356
aI23
aI32
ag3
aa(lp4498
I1356
aI55
aI36
ag1037
aa(lp4499
I1356
aI39
aI44
ag1037
aa(lp4500
I1356
aI51
aI53
ag1037
aa(lp4501
I1356
aI27
aI84
ag1037
aa(lp4502
I1356
aI2
aI181
ag1037
aa(lp4503
I1356
aI3
aI294
ag1037
aa(lp4504
I1357
aI23
aI33
ag3
aa(lp4505
I1357
aI19
aI56
ag1037
aa(lp4506
I1357
aI16
aI98
ag1037
aa(lp4507
I1357
aI20
aI110
ag1037
aa(lp4508
I1357
aI8
aI175
ag1037
aa(lp4509
I1357
aI2
aI182
ag1037
aa(lp4510
I1357
aI9
aI200
ag1037
aa(lp4511
I1357
aI3
aI295
ag1037
aa(lp4512
I1359
aI21
aI70
ag3
aa(lp4513
I1360
aI38
aI30
ag1037
aa(lp4514
I1360
aI52
aI37
ag1037
aa(lp4515
I1360
aI53
aI39
ag1037
aa(lp4516
I1360
aI5
aI121
ag1037
aa(lp4517
I1361
aI44
aI27
ag3
aa(lp4518
I1361
aI38
aI31
ag1037
aa(lp4519
I1361
aI23
aI34
ag3
aa(lp4520
I1361
aI26
aI36
ag3
aa(lp4521
I1361
aI40
aI49
ag1037
aa(lp4522
I1361
aI3
aI296
ag1037
aa(lp4523
I1362
aI52
aI38
ag1037
aa(lp4524
I1362
aI24
aI48
ag1037
aa(lp4525
I1363
aI21
aI71
ag3
aa(lp4526
I1363
aI32
aI84
ag1037
aa(lp4527
I1363
aI20
aI111
ag1037
aa(lp4528
I1363
aI6
aI181
ag1037
aa(lp4529
I1363
aI1
aI236
ag1037
aa(lp4530
I1363
aI3
aI297
ag1037
aa(lp4531
I1364
aI15
aI58
ag1037
aa(lp4532
I1364
aI27
aI85
ag1037
aa(lp4533
I1364
aI14
aI163
ag1037
aa(lp4534
I1364
aI2
aI183
ag1037
aa(lp4535
I1364
aI3
aI298
ag1037
aa(lp4536
I1365
aI44
aI28
ag3
aa(lp4537
I1365
aI14
aI164
ag1037
aa(lp4538
I1365
aI2
aI184
ag1037
aa(lp4539
I1365
aI9
aI201
ag1037
aa(lp4540
I1365
aI1
aI237
ag1037
aa(lp4541
I1365
aI3
aI299
ag1037
aa(lp4542
I1366
aI24
aI49
ag1037
aa(lp4543
I1366
aI57
aI53
ag1037
aa(lp4544
I1366
aI5
aI122
ag1037
aa(lp4545
I1366
aI10
aI169
ag1037
aa(lp4546
I1367
aI26
aI37
ag3
aa(lp4547
I1367
aI20
aI112
ag1037
aa(lp4548
I1367
aI9
aI202
ag1037
aa(lp4549
I1368
aI26
aI38
ag3
aa(lp4550
I1368
aI34
aI40
ag3
aa(lp4551
I1368
aI17
aI47
ag3
aa(lp4552
I1368
aI27
aI86
ag1037
aa(lp4553
I1368
aI6
aI182
ag1037
aa(lp4554
I1369
aI26
aI39
ag3
aa(lp4555
I1369
aI34
aI41
ag3
aa(lp4556
I1369
aI39
aI45
ag1037
aa(lp4557
I1369
aI19
aI57
ag1037
aa(lp4558
I1369
aI21
aI72
ag3
aa(lp4559
I1369
aI45
aI77
ag1037
aa(lp4560
I1369
aI32
aI85
ag1037
aa(lp4561
I1369
aI11
aI142
ag1037
aa(lp4562
I1369
aI14
aI165
ag1037
aa(lp4563
I1369
aI8
aI176
ag1037
aa(lp4564
I1369
aI3
aI300
ag1037
aa(lp4565
I1370
aI48
aI28
ag1037
aa(lp4566
I1370
aI29
aI66
ag1037
aa(lp4567
I1371
aI33
aI58
ag1037
aa(lp4568
I1371
aI45
aI78
ag1037
aa(lp4569
I1371
aI20
aI113
ag1037
aa(lp4570
I1372
aI54
aI37
ag1037
aa(lp4571
I1372
aI14
aI166
ag1037
aa(lp4572
I1372
aI6
aI183
ag1037
aa(lp4573
I1372
aI2
aI185
ag1037
aa(lp4574
I1372
aI1
aI238
ag1037
aa(lp4575
I1372
aI3
aI301
ag1037
aa(lp4576
I1373
aI44
aI29
ag3
aa(lp4577
I1373
aI54
aI38
ag1037
aa(lp4578
I1373
aI30
aI43
ag1037
aa(lp4579
I1373
aI51
aI54
ag1037
aa(lp4580
I1373
aI45
aI79
ag1037
aa(lp4581
I1373
aI32
aI86
ag1037
aa(lp4582
I1373
aI4
aI100
ag1037
aa(lp4583
I1373
aI5
aI123
ag1037
aa(lp4584
I1373
aI11
aI143
ag1037
aa(lp4585
I1373
aI14
aI167
ag1037
aa(lp4586
I1373
aI10
aI170
ag1037
aa(lp4587
I1373
aI9
aI203
ag1037
aa(lp4588
I1373
aI3
aI302
ag1037
aa(lp4589
I1374
aI14
aI168
ag1037
aa(lp4590
I1374
aI2
aI186
ag1037
aa(lp4591
I1375
aI21
aI73
ag3
aa(lp4592
I1375
aI1
aI239
ag1037
aa(lp4593
I1375
aI3
aI303
ag1037
aa(lp4594
I1376
aI26
aI40
ag3
aa(lp4595
I1376
aI30
aI44
ag1037
aa(lp4596
I1376
aI6
aI184
ag1037
aa(lp4597
I1376
aI9
aI204
ag1037
aa(lp4598
I1377
aI50
aI22
ag1037
aa(lp4599
I1377
aI34
aI42
ag3
aa(lp4600
I1377
aI30
aI45
ag1037
aa(lp4601
I1377
aI57
aI54
ag1037
aa(lp4602
I1377
aI37
aI59
ag1037
aa(lp4603
I1377
aI21
aI74
ag3
aa(lp4604
I1377
aI45
aI80
ag1037
aa(lp4605
I1377
aI11
aI144
ag1037
aa(lp4606
I1377
aI9
aI205
ag1037
aa(lp4607
I1377
aI1
aI240
ag1037
aa(lp4608
I1377
aI3
aI304
ag1037
aa(lp4609
I1378
aI51
aI55
ag1037
aa(lp4610
I1378
aI6
aI185
ag1037
aa(lp4611
I1379
aI10
aI171
ag1037
aa(lp4612
I1379
aI1
aI241
ag1037
aa(lp4613
I1380
aI23
aI35
ag3
aa(lp4614
I1380
aI34
aI43
ag3
aa(lp4615
I1380
aI31
aI45
ag1037
aa(lp4616
I1380
aI40
aI50
ag1037
aa(lp4617
I1380
aI33
aI59
ag1037
aa(lp4618
I1380
aI13
aI71
ag1037
aa(lp4619
I1380
aI32
aI87
ag1037
aa(lp4620
I1380
aI11
aI145
ag1037
aa(lp4621
I1380
aI14
aI169
ag1037
aa(lp4622
I1380
aI3
aI305
ag1037
aa(lp4623
I1381
aI48
aI29
ag1037
aa(lp4624
I1381
aI23
aI36
ag3
aa(lp4625
I1381
aI34
aI44
ag3
aa(lp4626
I1381
aI40
aI51
ag1037
aa(lp4627
I1381
aI37
aI60
ag1037
aa(lp4628
I1381
aI4
aI101
ag1037
aa(lp4629
I1381
aI8
aI177
ag1037
aa(lp4630
I1381
aI2
aI187
ag1037
aa(lp4631
I1381
aI9
aI206
ag1037
aa(lp4632
I1381
aI1
aI242
ag1037
aa(lp4633
I1381
aI3
aI306
ag1037
aa(lp4634
I1382
aI4
aI102
ag1037
aa(lp4635
I1382
aI11
aI146
ag1037
aa(lp4636
I1382
aI9
aI207
ag1037
aa(lp4637
I1383
aI53
aI40
ag1037
aa(lp4638
I1383
aI41
aI50
ag1037
aa(lp4639
I1383
aI21
aI75
ag3
aa(lp4640
I1383
aI20
aI114
ag1037
aa(lp4641
I1383
aI10
aI172
ag1037
aa(lp4642
I1383
aI8
aI178
ag1037
aa(lp4643
I1383
aI9
aI208
ag1037
aa(lp4644
I1383
aI1
aI243
ag1037
aa(lp4645
I1384
aI26
aI41
ag3
aa(lp4646
I1384
aI39
aI46
ag1037
aa(lp4647
I1384
aI19
aI58
ag1037
aa(lp4648
I1384
aI45
aI81
ag1037
aa(lp4649
I1384
aI6
aI186
ag1037
aa(lp4650
I1384
aI2
aI188
ag1037
aa(lp4651
I1385
aI56
aI35
ag1037
aa(lp4652
I1385
aI23
aI37
ag3
aa(lp4653
I1385
aI26
aI42
ag3
aa(lp4654
I1385
aI41
aI51
ag1037
aa(lp4655
I1385
aI40
aI52
ag1037
aa(lp4656
I1385
aI37
aI61
ag1037
aa(lp4657
I1385
aI21
aI76
ag3
aa(lp4658
I1385
aI8
aI179
ag1037
aa(lp4659
I1385
aI6
aI187
ag1037
aa(lp4660
I1385
aI2
aI189
ag1037
aa(lp4661
I1385
aI1
aI244
ag1037
aa(lp4662
I1385
aI3
aI307
ag1037
aa(lp4663
I1386
aI53
aI41
ag1037
aa(lp4664
I1386
aI32
aI88
ag1037
aa(lp4665
I1387
aI17
aI48
ag3
aa(lp4666
I1387
aI9
aI209
ag1037
aa(lp4667
I1387
aI1
aI245
ag1037
aa(lp4668
I1388
aI56
aI36
ag1037
aa(lp4669
I1388
aI49
aI39
ag1037
aa(lp4670
I1388
aI54
aI39
ag1037
aa(lp4671
I1388
aI26
aI43
ag3
aa(lp4672
I1388
aI17
aI49
ag3
aa(lp4673
I1388
aI41
aI52
ag1037
aa(lp4674
I1388
aI21
aI77
ag3
aa(lp4675
I1388
aI2
aI190
ag1037
aa(lp4676
I1388
aI3
aI308
ag1037
aa(lp4677
I1389
aI50
aI23
ag1037
aa(lp4678
I1389
aI44
aI30
ag3
aa(lp4679
I1389
aI23
aI38
ag3
aa(lp4680
I1389
aI49
aI40
ag1037
aa(lp4681
I1389
aI19
aI59
ag1037
aa(lp4682
I1389
aI13
aI72
ag1037
aa(lp4683
I1389
aI21
aI78
ag3
aa(lp4684
I1389
aI32
aI89
ag1037
aa(lp4685
I1389
aI2
aI191
ag1037
aa(lp4686
I1389
aI9
aI210
ag1037
aa(lp4687
I1389
aI1
aI246
ag1037
aa(lp4688
I1389
aI3
aI309
ag1037
aa(lp4689
I1390
aI29
aI67
ag1037
aa(lp4690
I1391
aI34
aI45
ag3
aa(lp4691
I1391
aI2
aI192
ag1037
aa(lp4692
I1391
aI9
aI211
ag1037
aa(lp4693
I1391
aI1
aI247
ag1037
aa(lp4694
I1392
aI48
aI30
ag1037
aa(lp4695
I1392
aI23
aI39
ag3
aa(lp4696
I1392
aI39
aI47
ag1037
aa(lp4697
I1392
aI17
aI50
ag3
aa(lp4698
I1392
aI8
aI180
ag1037
aa(lp4699
I1392
aI2
aI193
ag1037
aa(lp4700
I1393
aI23
aI40
ag1037
aa(lp4701
I1393
aI24
aI50
ag1037
aa(lp4702
I1393
aI51
aI56
ag1037
aa(lp4703
I1393
aI37
aI62
ag1037
aa(lp4704
I1393
aI29
aI68
ag1037
aa(lp4705
I1393
aI32
aI90
ag1037
aa(lp4706
I1393
aI4
aI103
ag1037
aa(lp4707
I1393
aI2
aI194
ag1037
aa(lp4708
I1393
aI1
aI248
ag1037
aa(lp4709
I1394
aI9
aI212
ag1037
aa(lp4710
I1395
aI25
aI43
ag1037
aa(lp4711
I1395
aI45
aI82
ag1037
aa(lp4712
I1395
aI20
aI115
ag1037
aa(lp4713
I1395
aI14
aI170
ag1037
aa(lp4714
I1395
aI3
aI310
ag1037
aa(lp4715
I1396
aI31
aI46
ag1037
aa(lp4716
I1396
aI17
aI51
ag3
aa(lp4717
I1396
aI16
aI99
ag1037
aa(lp4718
I1396
aI14
aI171
ag1037
aa(lp4719
I1397
aI34
aI46
ag3
aa(lp4720
I1397
aI39
aI48
ag1037
aa(lp4721
I1397
aI32
aI91
ag1037
aa(lp4722
I1397
aI7
aI97
ag1037
aa(lp4723
I1397
aI14
aI172
ag1037
aa(lp4724
I1397
aI8
aI181
ag1037
aa(lp4725
I1397
aI3
aI311
ag1037
aa(lp4726
I1398
aI45
aI83
ag1037
aa(lp4727
I1399
aI7
aI98
ag1037
aa(lp4728
I1399
aI20
aI116
ag1037
aa(lp4729
I1400
aI32
aI92
ag1037
aa(lp4730
I1400
aI6
aI188
ag1037
aa(lp4731
I1401
aI21
aI79
ag3
aa(lp4732
I1401
aI7
aI99
ag1037
aa(lp4733
I1401
aI8
aI182
ag1037
aa(lp4734
I1401
aI9
aI213
ag1037
aa(lp4735
I1401
aI1
aI249
ag1037
aa(lp4736
I1401
aI3
aI312
ag1037
aa(lp4737
I1402
aI29
aI69
ag1037
aa(lp4738
I1402
aI16
aI100
ag1037
aa(lp4739
I1402
aI6
aI189
ag1037
aa(lp4740
I1403
aI51
aI57
ag1037
aa(lp4741
I1403
aI21
aI80
ag3
aa(lp4742
I1403
aI8
aI183
ag1037
aa(lp4743
I1403
aI9
aI214
ag1037
aa(lp4744
I1403
aI3
aI313
ag1037
aa(lp4745
I1404
aI31
aI47
ag1037
aa(lp4746
I1404
aI17
aI52
ag3
aa(lp4747
I1404
aI43
aI60
ag1037
aa(lp4748
I1404
aI4
aI104
ag1037
aa(lp4749
I1404
aI11
aI147
ag1037
aa(lp4750
I1405
aI50
aI24
ag1037
aa(lp4751
I1405
aI56
aI37
ag1037
aa(lp4752
I1405
aI34
aI47
ag3
aa(lp4753
I1405
aI5
aI124
ag1037
aa(lp4754
I1405
aI11
aI148
ag1037
aa(lp4755
I1405
aI8
aI184
ag1037
aa(lp4756
I1405
aI6
aI190
ag1037
aa(lp4757
I1405
aI9
aI215
ag1037
aa(lp4758
I1406
aI11
aI149
ag1037
aa(lp4759
I1406
aI6
aI191
ag1037
aa(lp4760
I1407
aI21
aI81
ag1037
aa(lp4761
I1407
aI3
aI314
ag1037
aa(lp4762
I1408
aI26
aI44
ag1037
aa(lp4763
I1408
aI34
aI48
ag3
aa(lp4764
I1408
aI17
aI53
ag3
aa(lp4765
I1408
aI33
aI60
ag1037
aa(lp4766
I1408
aI16
aI101
ag1037
aa(lp4767
I1408
aI4
aI105
ag1037
aa(lp4768
I1408
aI2
aI195
ag1037
aa(lp4769
I1408
aI9
aI216
ag1037
aa(lp4770
I1408
aI3
aI315
ag1037
aa(lp4771
I1409
aI26
aI45
ag1037
aa(lp4772
I1409
aI34
aI49
ag3
aa(lp4773
I1409
aI17
aI54
ag3
aa(lp4774
I1409
aI13
aI73
ag1037
aa(lp4775
I1409
aI32
aI93
ag1037
aa(lp4776
I1409
aI4
aI106
ag1037
aa(lp4777
I1409
aI11
aI150
ag1037
aa(lp4778
I1409
aI8
aI185
ag1037
aa(lp4779
I1409
aI9
aI217
ag1037
aa(lp4780
I1409
aI3
aI316
ag1037
aa(lp4781
I1410
aI30
aI46
ag1037
aa(lp4782
I1410
aI34
aI50
ag3
aa(lp4783
I1410
aI57
aI55
ag1037
aa(lp4784
I1410
aI2
aI196
ag1037
aa(lp4785
I1411
aI9
aI218
ag1037
aa(lp4786
I1421
aI48
aI31
ag1037
aa(lp4787
I1421
aI31
aI48
ag1037
aa(lp4788
I1421
aI7
aI100
ag1037
aa(lp4789
I1421
aI10
aI173
ag1037
aa(lp4790
I1421
aI3
aI317
ag1037
aa(lp4791
I1422
aI29
aI70
ag1037
aa(lp4792
I1422
aI14
aI173
ag1037
aa(lp4793
I1422
aI6
aI192
ag1037
aa(lp4794
I1422
aI1
aI250
ag1037
aa(lp4795
I1423
aI21
aI82
ag1037
aa(lp4796
I1423
aI14
aI174
ag1037
aa(lp4797
I1423
aI9
aI219
ag1037
aa(lp4798
I1423
aI3
aI318
ag1037
aa(lp4799
I1424
aI31
aI49
ag1037
aa(lp4800
I1424
aI34
aI51
ag3
aa(lp4801
I1424
aI21
aI83
ag1037
aa(lp4802
I1424
aI32
aI94
ag1037
aa(lp4803
I1424
aI14
aI175
ag1037
aa(lp4804
I1424
aI9
aI220
ag1037
aa(lp4805
I1424
aI3
aI319
ag1037
aa(lp4806
I1425
aI57
aI56
ag1037
aa(lp4807
I1425
aI21
aI84
ag1037
aa(lp4808
I1425
aI45
aI84
ag1037
aa(lp4809
I1425
aI32
aI95
ag1037
aa(lp4810
I1425
aI4
aI107
ag1037
aa(lp4811
I1425
aI11
aI151
ag1037
aa(lp4812
I1425
aI14
aI176
ag1037
aa(lp4813
I1425
aI1
aI251
ag1037
aa(lp4814
I1425
aI3
aI320
ag1037
aa(lp4815
I1426
aI40
aI53
ag1037
aa(lp4816
I1433
aI56
aI38
ag1037
aa(lp4817
I1433
aI1
aI252
ag1037
aa(lp4818
I1435
aI32
aI96
ag1037
aa(lp4819
I1435
aI9
aI221
ag1037
aa(lp4820
I1435
aI3
aI321
ag1037
aa(lp4821
I1436
aI31
aI50
ag1037
aa(lp4822
I1436
aI33
aI61
ag1037
aa(lp4823
I1436
aI16
aI102
ag1037
aa(lp4824
I1436
aI14
aI177
ag1037
aa(lp4825
I1436
aI9
aI222
ag1037
aa(lp4826
I1437
aI57
aI57
ag1037
aa(lp4827
I1437
aI33
aI62
ag1037
aa(lp4828
I1437
aI37
aI63
ag1037
aa(lp4829
I1437
aI45
aI85
ag1037
aa(lp4830
I1437
aI32
aI97
ag1037
aa(lp4831
I1437
aI16
aI103
ag1037
aa(lp4832
I1437
aI5
aI125
ag1037
aa(lp4833
I1437
aI2
aI197
ag1037
aa(lp4834
I1437
aI1
aI253
ag1037
aa(lp4835
I1437
aI3
aI322
ag1037
aa(lp4836
I1438
aI34
aI52
ag3
aa(lp4837
I1438
aI29
aI71
ag1037
aa(lp4838
I1438
aI6
aI193
ag1037
aa(lp4839
I1439
aI9
aI223
ag1037
aa(lp4840
I1439
aI1
aI254
ag1037
aa(lp4841
I1440
aI34
aI53
ag3
aa(lp4842
I1440
aI17
aI55
ag3
aa(lp4843
I1440
aI29
aI72
ag1037
aa(lp4844
I1440
aI7
aI101
ag1037
aa(lp4845
I1440
aI5
aI126
ag1037
aa(lp4846
I1441
aI35
aI26
ag1037
aa(lp4847
I1441
aI44
aI31
ag1037
aa(lp4848
I1441
aI23
aI41
ag1037
aa(lp4849
I1441
aI53
aI42
ag1037
aa(lp4850
I1441
aI26
aI46
ag1037
aa(lp4851
I1441
aI57
aI58
ag1037
aa(lp4852
I1441
aI19
aI60
ag1037
aa(lp4853
I1441
aI37
aI64
ag1037
aa(lp4854
I1441
aI9
aI224
ag1037
aa(lp4855
I1441
aI1
aI255
ag1037
aa(lp4856
I1441
aI3
aI323
ag1037
aa(lp4857
I1442
aI44
aI32
ag1037
aa(lp4858
I1442
aI49
aI41
ag1037
aa(lp4859
I1442
aI23
aI42
ag1037
aa(lp4860
I1442
aI19
aI61
ag1037
aa(lp4861
I1442
aI11
aI152
ag1037
aa(lp4862
I1443
aI54
aI40
ag1037
aa(lp4863
I1443
aI14
aI178
ag1037
aa(lp4864
I1443
aI9
aI225
ag1037
aa(lp4865
I1443
aI1
aI256
ag1037
aa(lp4866
I1444
aI52
aI39
ag1037
aa(lp4867
I1444
aI23
aI43
ag1037
aa(lp4868
I1444
aI26
aI47
ag1037
aa(lp4869
I1444
aI39
aI49
ag1037
aa(lp4870
I1444
aI34
aI54
ag3
aa(lp4871
I1444
aI40
aI54
ag1037
aa(lp4872
I1444
aI17
aI56
ag1037
aa(lp4873
I1444
aI43
aI61
ag1037
aa(lp4874
I1444
aI11
aI153
ag1037
aa(lp4875
I1444
aI6
aI194
ag1037
aa(lp4876
I1444
aI3
aI324
ag1037
aa(lp4877
I1445
aI31
aI51
ag1037
aa(lp4878
I1445
aI41
aI53
ag1037
aa(lp4879
I1445
aI34
aI55
ag3
aa(lp4880
I1445
aI17
aI57
ag1037
aa(lp4881
I1445
aI4
aI108
ag1037
aa(lp4882
I1445
aI5
aI127
ag1037
aa(lp4883
I1445
aI11
aI154
ag1037
aa(lp4884
I1445
aI9
aI226
ag1037
aa(lp4885
I1445
aI1
aI257
ag1037
aa(lp4886
I1446
aI47
aI24
ag1037
aa(lp4887
I1446
aI1
aI258
ag1037
aa(lp4888
I1447
aI45
aI86
ag1037
aa(lp4889
I1447
aI14
aI179
ag1037
aa(lp4890
I1447
aI6
aI195
ag1037
aa(lp4891
I1447
aI9
aI227
ag1037
aa(lp4892
I1447
aI1
aI259
ag1037
aa(lp4893
I1447
aI3
aI325
ag1037
aa(lp4894
I1448
aI45
aI87
ag1037
aa(lp4895
I1448
aI14
aI180
ag1037
aa(lp4896
I1449
aI23
aI44
ag1037
aa(lp4897
I1449
aI37
aI65
ag1037
aa(lp4898
I1449
aI32
aI98
ag1037
aa(lp4899
I1449
aI16
aI104
ag1037
aa(lp4900
I1449
aI5
aI128
ag1037
aa(lp4901
I1449
aI14
aI181
ag1037
aa(lp4902
I1449
aI2
aI198
ag1037
aa(lp4903
I1449
aI1
aI260
ag1037
aa(lp4904
I1449
aI3
aI326
ag1037
aa(lp4905
I1450
aI44
aI33
ag1037
aa(lp4906
I1450
aI24
aI51
ag1037
aa(lp4907
I1450
aI45
aI88
ag1037
aa(lp4908
I1450
aI1
aI261
ag1037
aa(lp4909
I1451
aI3
aI327
ag1037
aa(lp4910
I1453
aI38
aI32
ag1037
aa(lp4911
I1453
aI48
aI32
ag1037
aa(lp4912
I1453
aI56
aI39
ag1037
aa(lp4913
I1453
aI40
aI55
ag1037
aa(lp4914
I1453
aI57
aI59
ag1037
aa(lp4915
I1453
aI16
aI105
ag1037
aa(lp4916
I1453
aI3
aI328
ag1037
aa(lp4917
I1455
aI45
aI89
ag1037
aa(lp4918
I1455
aI3
aI329
ag1037
aa(lp4919
I1456
aI30
aI47
ag1037
aa(lp4920
I1456
aI34
aI56
ag1037
aa(lp4921
I1456
aI17
aI58
ag1037
aa(lp4922
I1456
aI32
aI99
ag1037
aa(lp4923
I1456
aI11
aI155
ag1037
aa(lp4924
I1456
aI14
aI182
ag1037
aa(lp4925
I1457
aI44
aI34
ag1037
aa(lp4926
I1457
aI31
aI52
ag1037
aa(lp4927
I1457
aI51
aI58
ag1037
aa(lp4928
I1457
aI45
aI90
ag1037
aa(lp4929
I1457
aI5
aI129
ag1037
aa(lp4930
I1457
aI14
aI183
ag1037
aa(lp4931
I1457
aI6
aI196
ag1037
aa(lp4932
I1457
aI9
aI228
ag1037
aa(lp4933
I1457
aI1
aI262
ag1037
aa(lp4934
I1457
aI3
aI330
ag1037
aa(lp4935
I1458
aI1
aI263
ag1037
aa(lp4936
I1459
aI17
aI59
ag1037
aa(lp4937
I1459
aI9
aI229
ag1037
aa(lp4938
I1460
aI26
aI48
ag1037
aa(lp4939
I1460
aI31
aI53
ag1037
aa(lp4940
I1460
aI34
aI57
ag1037
aa(lp4941
I1460
aI17
aI60
ag1037
aa(lp4942
I1460
aI11
aI156
ag1037
aa(lp4943
I1460
aI9
aI230
ag1037
aa(lp4944
I1460
aI3
aI331
ag1037
aa(lp4945
I1461
aI34
aI58
ag1037
aa(lp4946
I1461
aI32
aI100
ag1037
aa(lp4947
I1461
aI7
aI102
ag1037
aa(lp4948
I1461
aI16
aI106
ag1037
aa(lp4949
I1461
aI11
aI157
ag1037
aa(lp4950
I1461
aI14
aI184
ag1037
aa(lp4951
I1461
aI2
aI199
ag1037
aa(lp4952
I1461
aI9
aI231
ag1037
aa(lp4953
I1461
aI3
aI332
ag1037
aa(lp4954
I1462
aI11
aI158
ag1037
aa(lp4955
I1462
aI6
aI197
ag1037
aa(lp4956
I1462
aI3
aI333
ag1037
aa(lp4957
I1463
aI9
aI232
ag1037
aa(lp4958
I1463
aI1
aI264
ag1037
aa(lp4959
I1463
aI3
aI334
ag1037
aa(lp4960
I1464
aI23
aI45
ag1037
aa(lp4961
I1464
aI34
aI59
ag1037
aa(lp4962
I1464
aI29
aI73
ag1037
aa(lp4963
I1464
aI14
aI185
ag1037
aa(lp4964
I1464
aI9
aI233
ag1037
aa(lp4965
I1464
aI3
aI335
ag1037
aa(lp4966
I1465
aI38
aI33
ag1037
aa(lp4967
I1465
aI41
aI54
ag1037
aa(lp4968
I1465
aI51
aI59
ag1037
aa(lp4969
I1465
aI37
aI66
ag1037
aa(lp4970
I1465
aI7
aI103
ag1037
aa(lp4971
I1465
aI16
aI107
ag1037
aa(lp4972
I1465
aI5
aI130
ag1037
aa(lp4973
I1465
aI14
aI186
ag1037
aa(lp4974
I1465
aI2
aI200
ag1037
aa(lp4975
I1465
aI1
aI265
ag1037
aa(lp4976
I1465
aI3
aI336
ag1037
aa(lp4977
I1466
aI6
aI198
ag1037
aa(lp4978
I1466
aI3
aI337
ag1037
aa(lp4979
I1467
aI53
aI43
ag1037
aa(lp4980
I1467
aI41
aI55
ag1037
aa(lp4981
I1467
aI21
aI85
ag1037
aa(lp4982
I1467
aI9
aI234
ag1037
aa(lp4983
I1467
aI1
aI266
ag1037
aa(lp4984
I1468
aI56
aI40
ag1037
aa(lp4985
I1468
aI26
aI49
ag1037
aa(lp4986
I1468
aI34
aI60
ag1037
aa(lp4987
I1468
aI17
aI61
ag1037
aa(lp4988
I1468
aI3
aI338
ag1037
aa(lp4989
I1469
aI35
aI27
ag1037
aa(lp4990
I1469
aI44
aI35
ag1037
aa(lp4991
I1469
aI53
aI44
ag1037
aa(lp4992
I1469
aI26
aI50
ag1037
aa(lp4993
I1469
aI40
aI56
ag1037
aa(lp4994
I1469
aI51
aI60
ag1037
aa(lp4995
I1469
aI17
aI62
ag1037
aa(lp4996
I1469
aI21
aI86
ag1037
aa(lp4997
I1469
aI16
aI108
ag1037
aa(lp4998
I1469
aI2
aI201
ag1037
aa(lp4999
I1469
aI9
aI235
ag1037
aa(lp5000
I1469
aI1
aI267
ag1037
aa(lp5001
I1470
aI11
aI159
ag1037
aa(lp5002
I1470
aI3
aI339
ag1037
aa(lp5003
I1471
aI38
aI34
ag1037
aa(lp5004
I1471
aI9
aI236
ag1037
aa(lp5005
I1472
aI39
aI50
ag1037
aa(lp5006
I1472
aI31
aI54
ag1037
aa(lp5007
I1472
aI15
aI59
ag1037
aa(lp5008
I1472
aI21
aI87
ag1037
aa(lp5009
I1472
aI16
aI109
ag1037
aa(lp5010
I1473
aI31
aI55
ag1037
aa(lp5011
I1473
aI34
aI61
ag1037
aa(lp5012
I1473
aI19
aI62
ag1037
aa(lp5013
I1473
aI13
aI74
ag1037
aa(lp5014
I1473
aI29
aI74
ag1037
aa(lp5015
I1473
aI21
aI88
ag1037
aa(lp5016
I1473
aI7
aI104
ag1037
aa(lp5017
I1473
aI16
aI110
ag1037
aa(lp5018
I1473
aI2
aI202
ag1037
aa(lp5019
I1473
aI9
aI237
ag1037
aa(lp5020
I1474
aI8
aI186
ag1037
aa(lp5021
I1474
aI2
aI203
ag1037
aa(lp5022
I1475
aI21
aI89
ag1037
aa(lp5023
I1475
aI9
aI238
ag1037
aa(lp5024
I1475
aI1
aI268
ag1037
aa(lp5025
I1475
aI3
aI340
ag1037
aa(lp5026
I1477
aI35
aI28
ag1037
aa(lp5027
I1477
aI6
aI199
ag1037
aa(lp5028
I1477
aI2
aI204
ag1037
aa(lp5029
I1477
aI3
aI341
ag1037
aa(lp5030
I1478
aI37
aI67
ag1037
aa(lp5031
I1479
aI21
aI90
ag1037
aa(lp5032
I1479
aI8
aI187
ag1037
aa(lp5033
I1479
aI14
aI187
ag1037
aa(lp5034
I1479
aI6
aI200
ag1037
aa(lp5035
I1479
aI3
aI342
ag1037
aa(lp5036
I1480
aI34
aI62
ag1037
aa(lp5037
I1480
aI17
aI63
ag1037
aa(lp5038
I1480
aI10
aI174
ag1037
aa(lp5039
I1480
aI9
aI239
ag1037
aa(lp5040
I1481
aI50
aI25
ag1037
aa(lp5041
I1481
aI44
aI36
ag1037
aa(lp5042
I1481
aI55
aI37
ag1037
aa(lp5043
I1481
aI39
aI51
ag1037
aa(lp5044
I1481
aI41
aI56
ag1037
aa(lp5045
I1481
aI15
aI60
ag1037
aa(lp5046
I1481
aI57
aI60
ag1037
aa(lp5047
I1481
aI51
aI61
ag1037
aa(lp5048
I1481
aI34
aI63
ag1037
aa(lp5049
I1481
aI45
aI91
ag1037
aa(lp5050
I1481
aI7
aI105
ag1037
aa(lp5051
I1481
aI16
aI111
ag1037
aa(lp5052
I1481
aI8
aI188
ag1037
aa(lp5053
I1481
aI1
aI269
ag1037
aa(lp5054
I1481
aI3
aI343
ag1037
aa(lp5055
I1482
aI24
aI52
ag1037
aa(lp5056
I1482
aI34
aI64
ag1037
aa(lp5057
I1482
aI10
aI175
ag1037
aa(lp5058
I1482
aI14
aI188
ag1037
aa(lp5059
I1482
aI1
aI270
ag1037
aa(lp5060
I1483
aI21
aI91
ag1037
aa(lp5061
I1484
aI50
aI26
ag1037
aa(lp5062
I1484
aI19
aI63
ag1037
aa(lp5063
I1484
aI21
aI92
ag1037
aa(lp5064
I1485
aI23
aI46
ag1037
aa(lp5065
I1485
aI24
aI53
ag1037
aa(lp5066
I1486
aI35
aI29
ag1037
aa(lp5067
I1486
aI34
aI65
ag1037
aa(lp5068
I1486
aI9
aI240
ag1037
aa(lp5069
I1487
aI21
aI93
ag1037
aa(lp5070
I1487
aI20
aI117
ag1037
aa(lp5071
I1487
aI2
aI205
ag1037
aa(lp5072
I1487
aI1
aI271
ag1037
aa(lp5073
I1487
aI3
aI344
ag1037
aa(lp5074
I1488
aI26
aI51
ag1037
aa(lp5075
I1488
aI17
aI64
ag1037
aa(lp5076
I1488
aI29
aI75
ag1037
aa(lp5077
I1488
aI3
aI345
ag1037
aa(lp5078
I1489
aI47
aI25
ag1037
aa(lp5079
I1489
aI23
aI47
ag1037
aa(lp5080
I1489
aI41
aI57
ag1037
aa(lp5081
I1489
aI17
aI65
ag1037
aa(lp5082
I1489
aI34
aI66
ag1037
aa(lp5083
I1489
aI45
aI92
ag1037
aa(lp5084
I1489
aI16
aI112
ag1037
aa(lp5085
I1489
aI2
aI206
ag1037
aa(lp5086
I1489
aI1
aI272
ag1037
aa(lp5087
I1489
aI3
aI346
ag1037
aa(lp5088
I1490
aI1
aI273
ag1037
aa(lp5089
I1490
aI3
aI347
ag1037
aa(lp5090
I1491
aI21
aI94
ag1037
aa(lp5091
I1491
aI2
aI207
ag1037
aa(lp5092
I1491
aI3
aI348
ag1037
aa(lp5093
I1492
aI17
aI66
ag1037
aa(lp5094
I1492
aI29
aI76
ag1037
aa(lp5095
I1492
aI16
aI113
ag1037
aa(lp5096
I1492
aI2
aI208
ag1037
aa(lp5097
I1492
aI9
aI241
ag1037
aa(lp5098
I1493
aI47
aI26
ag1037
aa(lp5099
I1493
aI55
aI38
ag1037
aa(lp5100
I1493
aI52
aI40
ag1037
aa(lp5101
I1493
aI15
aI61
ag1037
aa(lp5102
I1493
aI37
aI68
ag1037
aa(lp5103
I1493
aI29
aI77
ag1037
aa(lp5104
I1493
aI45
aI93
ag1037
aa(lp5105
I1493
aI21
aI95
ag1037
aa(lp5106
I1493
aI16
aI114
ag1037
aa(lp5107
I1493
aI11
aI160
ag1037
aa(lp5108
I1493
aI8
aI189
ag1037
aa(lp5109
I1493
aI14
aI189
ag1037
aa(lp5110
I1493
aI2
aI209
ag1037
aa(lp5111
I1493
aI9
aI242
ag1037
aa(lp5112
I1493
aI1
aI274
ag1037
aa(lp5113
I1493
aI3
aI349
ag1037
aa(lp5114
I1494
aI29
aI78
ag1037
aa(lp5115
I1494
aI11
aI161
ag1037
aa(lp5116
I1494
aI3
aI350
ag1037
aa(lp5117
I1503
aI39
aI52
ag1037
aa(lp5118
I1503
aI21
aI96
ag1037
aa(lp5119
I1503
aI8
aI190
ag1037
aa(lp5120
I1503
aI2
aI210
ag1037
aa(lp5121
I1503
aI1
aI275
ag1037
aa(lp5122
I1504
aI55
aI39
ag1037
aa(lp5123
I1504
aI53
aI45
ag1037
aa(lp5124
I1504
aI30
aI48
ag1037
aa(lp5125
I1504
aI26
aI52
ag1037
aa(lp5126
I1504
aI51
aI62
ag1037
aa(lp5127
I1504
aI19
aI64
ag1037
aa(lp5128
I1505
aI53
aI46
ag1037
aa(lp5129
I1505
aI26
aI53
ag1037
aa(lp5130
I1505
aI31
aI56
ag1037
aa(lp5131
I1505
aI40
aI57
ag1037
aa(lp5132
I1505
aI33
aI63
ag1037
aa(lp5133
I1505
aI21
aI97
ag1037
aa(lp5134
I1505
aI10
aI176
ag1037
aa(lp5135
I1505
aI2
aI211
ag1037
aa(lp5136
I1505
aI1
aI276
ag1037
aa(lp5137
I1506
aI24
aI54
ag1037
aa(lp5138
I1506
aI4
aI109
ag1037
aa(lp5139
I1507
aI21
aI98
ag1037
aa(lp5140
I1507
aI6
aI201
ag1037
aa(lp5141
I1507
aI2
aI212
ag1037
aa(lp5142
I1507
aI9
aI243
ag1037
aa(lp5143
I1507
aI3
aI351
ag1037
aa(lp5144
I1508
aI51
aI63
ag1037
aa(lp5145
I1508
aI17
aI67
ag1037
aa(lp5146
I1508
aI45
aI94
ag1037
aa(lp5147
I1509
aI50
aI27
ag1037
aa(lp5148
I1509
aI44
aI37
ag1037
aa(lp5149
I1509
aI55
aI40
ag1037
aa(lp5150
I1509
aI40
aI58
ag1037
aa(lp5151
I1509
aI34
aI67
ag1037
aa(lp5152
I1509
aI11
aI162
ag1037
aa(lp5153
I1509
aI14
aI190
ag1037
aa(lp5154
I1509
aI2
aI213
ag1037
aa(lp5155
I1509
aI3
aI352
ag1037
aa(lp5156
I1510
aI57
aI61
ag1037
aa(lp5157
I1510
aI29
aI79
ag1037
aa(lp5158
I1510
aI10
aI177
ag1037
aa(lp5159
I1511
aI21
aI99
ag1037
aa(lp5160
I1511
aI6
aI202
ag1037
aa(lp5161
I1512
aI41
aI58
ag1037
aa(lp5162
I1512
aI29
aI80
ag1037
aa(lp5163
I1512
aI4
aI110
ag1037
aa(lp5164
I1512
aI8
aI191
ag1037
aa(lp5165
I1512
aI3
aI353
ag1037
aa(lp5166
I1513
aI23
aI48
ag1037
aa(lp5167
I1513
aI19
aI65
ag1037
aa(lp5168
I1513
aI34
aI68
ag1037
aa(lp5169
I1513
aI21
aI100
ag1037
aa(lp5170
I1513
aI10
aI178
ag1037
aa(lp5171
I1513
aI3
aI354
ag1037
aa(lp5172
I1514
aI23
aI49
ag1037
aa(lp5173
I1514
aI9
aI244
ag1037
aa(lp5174
I1515
aI55
aI41
ag1037
aa(lp5175
I1515
aI26
aI54
ag1037
aa(lp5176
I1515
aI17
aI68
ag1037
aa(lp5177
I1515
aI21
aI101
ag1037
aa(lp5178
I1515
aI9
aI245
ag1037
aa(lp5179
I1515
aI1
aI277
ag1037
aa(lp5180
I1516
aI55
aI42
ag1037
aa(lp5181
I1516
aI43
aI62
ag1037
aa(lp5182
I1516
aI33
aI64
ag1037
aa(lp5183
I1516
aI17
aI69
ag1037
aa(lp5184
I1516
aI16
aI115
ag1037
aa(lp5185
I1516
aI20
aI118
ag1037
aa(lp5186
I1517
aI44
aI38
ag1037
aa(lp5187
I1517
aI52
aI41
ag1037
aa(lp5188
I1517
aI23
aI50
ag1037
aa(lp5189
I1517
aI51
aI64
ag1037
aa(lp5190
I1517
aI33
aI65
ag1037
aa(lp5191
I1517
aI8
aI192
ag1037
aa(lp5192
I1517
aI1
aI278
ag1037
aa(lp5193
I1517
aI3
aI355
ag1037
aa(lp5194
I1518
aI52
aI42
ag1037
aa(lp5195
I1518
aI34
aI69
ag1037
aa(lp5196
I1524
aI39
aI53
ag1037
aa(lp5197
I1524
aI17
aI70
ag1037
aa.